ARM GAS  C:\Users\Joshua\AppData\Local\Temp\cceSkfzH.s 			page 1


   1              		.syntax unified
   2              		.cpu cortex-m3
   3              		.fpu softvfp
   4              		.eabi_attribute 20, 1
   5              		.eabi_attribute 21, 1
   6              		.eabi_attribute 23, 3
   7              		.eabi_attribute 24, 1
   8              		.eabi_attribute 25, 1
   9              		.eabi_attribute 26, 1
  10              		.eabi_attribute 30, 1
  11              		.eabi_attribute 34, 1
  12              		.eabi_attribute 18, 4
  13              		.thumb
  14              		.syntax unified
  15              		.file	"Check_Temp.c"
  16              		.text
  17              	.Ltext0:
  18              		.cfi_sections	.debug_frame
  19              		.section	.text.Check_Temp_Interrupt,"ax",%progbits
  20              		.align	2
  21              		.global	Check_Temp_Interrupt
  22              		.thumb
  23              		.thumb_func
  24              		.type	Check_Temp_Interrupt, %function
  25              	Check_Temp_Interrupt:
  26              	.LFB67:
  27              		.file 1 "Generated_Source\\PSoC5\\Check_Temp.c"
   1:Generated_Source\PSoC5/Check_Temp.c **** /*******************************************************************************
   2:Generated_Source\PSoC5/Check_Temp.c **** * File Name: Check_Temp.c  
   3:Generated_Source\PSoC5/Check_Temp.c **** * Version 1.70
   4:Generated_Source\PSoC5/Check_Temp.c **** *
   5:Generated_Source\PSoC5/Check_Temp.c **** *  Description:
   6:Generated_Source\PSoC5/Check_Temp.c **** *   API for controlling the state of an interrupt.
   7:Generated_Source\PSoC5/Check_Temp.c **** *
   8:Generated_Source\PSoC5/Check_Temp.c **** *
   9:Generated_Source\PSoC5/Check_Temp.c **** *  Note:
  10:Generated_Source\PSoC5/Check_Temp.c **** *
  11:Generated_Source\PSoC5/Check_Temp.c **** ********************************************************************************
  12:Generated_Source\PSoC5/Check_Temp.c **** * Copyright 2008-2015, Cypress Semiconductor Corporation.  All rights reserved.
  13:Generated_Source\PSoC5/Check_Temp.c **** * You may use this file only in accordance with the license, terms, conditions, 
  14:Generated_Source\PSoC5/Check_Temp.c **** * disclaimers, and limitations in the end user license agreement accompanying 
  15:Generated_Source\PSoC5/Check_Temp.c **** * the software package with which this file was provided.
  16:Generated_Source\PSoC5/Check_Temp.c **** *******************************************************************************/
  17:Generated_Source\PSoC5/Check_Temp.c **** 
  18:Generated_Source\PSoC5/Check_Temp.c **** 
  19:Generated_Source\PSoC5/Check_Temp.c **** #include <cydevice_trm.h>
  20:Generated_Source\PSoC5/Check_Temp.c **** #include <CyLib.h>
  21:Generated_Source\PSoC5/Check_Temp.c **** #include <Check_Temp.h>
  22:Generated_Source\PSoC5/Check_Temp.c **** #include "cyapicallbacks.h"
  23:Generated_Source\PSoC5/Check_Temp.c **** 
  24:Generated_Source\PSoC5/Check_Temp.c **** #if !defined(Check_Temp__REMOVED) /* Check for removal by optimization */
  25:Generated_Source\PSoC5/Check_Temp.c **** 
  26:Generated_Source\PSoC5/Check_Temp.c **** /*******************************************************************************
  27:Generated_Source\PSoC5/Check_Temp.c **** *  Place your includes, defines and code here 
  28:Generated_Source\PSoC5/Check_Temp.c **** ********************************************************************************/
  29:Generated_Source\PSoC5/Check_Temp.c **** /* `#START Check_Temp_intc` */
  30:Generated_Source\PSoC5/Check_Temp.c **** #include <macros.h>
ARM GAS  C:\Users\Joshua\AppData\Local\Temp\cceSkfzH.s 			page 2


  31:Generated_Source\PSoC5/Check_Temp.c **** /* `#END` */
  32:Generated_Source\PSoC5/Check_Temp.c **** 
  33:Generated_Source\PSoC5/Check_Temp.c **** #ifndef CYINT_IRQ_BASE
  34:Generated_Source\PSoC5/Check_Temp.c **** #define CYINT_IRQ_BASE      16
  35:Generated_Source\PSoC5/Check_Temp.c **** #endif /* CYINT_IRQ_BASE */
  36:Generated_Source\PSoC5/Check_Temp.c **** #ifndef CYINT_VECT_TABLE
  37:Generated_Source\PSoC5/Check_Temp.c **** #define CYINT_VECT_TABLE    ((cyisraddress **) CYREG_NVIC_VECT_OFFSET)
  38:Generated_Source\PSoC5/Check_Temp.c **** #endif /* CYINT_VECT_TABLE */
  39:Generated_Source\PSoC5/Check_Temp.c **** 
  40:Generated_Source\PSoC5/Check_Temp.c **** /* Declared in startup, used to set unused interrupts to. */
  41:Generated_Source\PSoC5/Check_Temp.c **** CY_ISR_PROTO(IntDefaultHandler);
  42:Generated_Source\PSoC5/Check_Temp.c **** 
  43:Generated_Source\PSoC5/Check_Temp.c **** 
  44:Generated_Source\PSoC5/Check_Temp.c **** /*******************************************************************************
  45:Generated_Source\PSoC5/Check_Temp.c **** * Function Name: Check_Temp_Start
  46:Generated_Source\PSoC5/Check_Temp.c **** ********************************************************************************
  47:Generated_Source\PSoC5/Check_Temp.c **** *
  48:Generated_Source\PSoC5/Check_Temp.c **** * Summary:
  49:Generated_Source\PSoC5/Check_Temp.c **** *  Set up the interrupt and enable it. This function disables the interrupt, 
  50:Generated_Source\PSoC5/Check_Temp.c **** *  sets the default interrupt vector, sets the priority from the value in the
  51:Generated_Source\PSoC5/Check_Temp.c **** *  Design Wide Resources Interrupt Editor, then enables the interrupt to the 
  52:Generated_Source\PSoC5/Check_Temp.c **** *  interrupt controller.
  53:Generated_Source\PSoC5/Check_Temp.c **** *
  54:Generated_Source\PSoC5/Check_Temp.c **** * Parameters:  
  55:Generated_Source\PSoC5/Check_Temp.c **** *   None
  56:Generated_Source\PSoC5/Check_Temp.c **** *
  57:Generated_Source\PSoC5/Check_Temp.c **** * Return:
  58:Generated_Source\PSoC5/Check_Temp.c **** *   None
  59:Generated_Source\PSoC5/Check_Temp.c **** *
  60:Generated_Source\PSoC5/Check_Temp.c **** *******************************************************************************/
  61:Generated_Source\PSoC5/Check_Temp.c **** void Check_Temp_Start(void)
  62:Generated_Source\PSoC5/Check_Temp.c **** {
  63:Generated_Source\PSoC5/Check_Temp.c ****     /* For all we know the interrupt is active. */
  64:Generated_Source\PSoC5/Check_Temp.c ****     Check_Temp_Disable();
  65:Generated_Source\PSoC5/Check_Temp.c **** 
  66:Generated_Source\PSoC5/Check_Temp.c ****     /* Set the ISR to point to the Check_Temp Interrupt. */
  67:Generated_Source\PSoC5/Check_Temp.c ****     Check_Temp_SetVector(&Check_Temp_Interrupt);
  68:Generated_Source\PSoC5/Check_Temp.c **** 
  69:Generated_Source\PSoC5/Check_Temp.c ****     /* Set the priority. */
  70:Generated_Source\PSoC5/Check_Temp.c ****     Check_Temp_SetPriority((uint8)Check_Temp_INTC_PRIOR_NUMBER);
  71:Generated_Source\PSoC5/Check_Temp.c **** 
  72:Generated_Source\PSoC5/Check_Temp.c ****     /* Enable it. */
  73:Generated_Source\PSoC5/Check_Temp.c ****     Check_Temp_Enable();
  74:Generated_Source\PSoC5/Check_Temp.c **** }
  75:Generated_Source\PSoC5/Check_Temp.c **** 
  76:Generated_Source\PSoC5/Check_Temp.c **** 
  77:Generated_Source\PSoC5/Check_Temp.c **** /*******************************************************************************
  78:Generated_Source\PSoC5/Check_Temp.c **** * Function Name: Check_Temp_StartEx
  79:Generated_Source\PSoC5/Check_Temp.c **** ********************************************************************************
  80:Generated_Source\PSoC5/Check_Temp.c **** *
  81:Generated_Source\PSoC5/Check_Temp.c **** * Summary:
  82:Generated_Source\PSoC5/Check_Temp.c **** *  Sets up the interrupt and enables it. This function disables the interrupt,
  83:Generated_Source\PSoC5/Check_Temp.c **** *  sets the interrupt vector based on the address passed in, sets the priority 
  84:Generated_Source\PSoC5/Check_Temp.c **** *  from the value in the Design Wide Resources Interrupt Editor, then enables 
  85:Generated_Source\PSoC5/Check_Temp.c **** *  the interrupt to the interrupt controller.
  86:Generated_Source\PSoC5/Check_Temp.c **** *  
  87:Generated_Source\PSoC5/Check_Temp.c **** *  When defining ISR functions, the CY_ISR and CY_ISR_PROTO macros should be 
ARM GAS  C:\Users\Joshua\AppData\Local\Temp\cceSkfzH.s 			page 3


  88:Generated_Source\PSoC5/Check_Temp.c **** *  used to provide consistent definition across compilers:
  89:Generated_Source\PSoC5/Check_Temp.c **** *  
  90:Generated_Source\PSoC5/Check_Temp.c **** *  Function definition example:
  91:Generated_Source\PSoC5/Check_Temp.c **** *   CY_ISR(MyISR)
  92:Generated_Source\PSoC5/Check_Temp.c **** *   {
  93:Generated_Source\PSoC5/Check_Temp.c **** *   }
  94:Generated_Source\PSoC5/Check_Temp.c **** *   Function prototype example:
  95:Generated_Source\PSoC5/Check_Temp.c **** *   CY_ISR_PROTO(MyISR);
  96:Generated_Source\PSoC5/Check_Temp.c **** *
  97:Generated_Source\PSoC5/Check_Temp.c **** * Parameters:  
  98:Generated_Source\PSoC5/Check_Temp.c **** *   address: Address of the ISR to set in the interrupt vector table.
  99:Generated_Source\PSoC5/Check_Temp.c **** *
 100:Generated_Source\PSoC5/Check_Temp.c **** * Return:
 101:Generated_Source\PSoC5/Check_Temp.c **** *   None
 102:Generated_Source\PSoC5/Check_Temp.c **** *
 103:Generated_Source\PSoC5/Check_Temp.c **** *******************************************************************************/
 104:Generated_Source\PSoC5/Check_Temp.c **** void Check_Temp_StartEx(cyisraddress address)
 105:Generated_Source\PSoC5/Check_Temp.c **** {
 106:Generated_Source\PSoC5/Check_Temp.c ****     /* For all we know the interrupt is active. */
 107:Generated_Source\PSoC5/Check_Temp.c ****     Check_Temp_Disable();
 108:Generated_Source\PSoC5/Check_Temp.c **** 
 109:Generated_Source\PSoC5/Check_Temp.c ****     /* Set the ISR to point to the Check_Temp Interrupt. */
 110:Generated_Source\PSoC5/Check_Temp.c ****     Check_Temp_SetVector(address);
 111:Generated_Source\PSoC5/Check_Temp.c **** 
 112:Generated_Source\PSoC5/Check_Temp.c ****     /* Set the priority. */
 113:Generated_Source\PSoC5/Check_Temp.c ****     Check_Temp_SetPriority((uint8)Check_Temp_INTC_PRIOR_NUMBER);
 114:Generated_Source\PSoC5/Check_Temp.c **** 
 115:Generated_Source\PSoC5/Check_Temp.c ****     /* Enable it. */
 116:Generated_Source\PSoC5/Check_Temp.c ****     Check_Temp_Enable();
 117:Generated_Source\PSoC5/Check_Temp.c **** }
 118:Generated_Source\PSoC5/Check_Temp.c **** 
 119:Generated_Source\PSoC5/Check_Temp.c **** 
 120:Generated_Source\PSoC5/Check_Temp.c **** /*******************************************************************************
 121:Generated_Source\PSoC5/Check_Temp.c **** * Function Name: Check_Temp_Stop
 122:Generated_Source\PSoC5/Check_Temp.c **** ********************************************************************************
 123:Generated_Source\PSoC5/Check_Temp.c **** *
 124:Generated_Source\PSoC5/Check_Temp.c **** * Summary:
 125:Generated_Source\PSoC5/Check_Temp.c **** *   Disables and removes the interrupt.
 126:Generated_Source\PSoC5/Check_Temp.c **** *
 127:Generated_Source\PSoC5/Check_Temp.c **** * Parameters:  
 128:Generated_Source\PSoC5/Check_Temp.c **** *   None
 129:Generated_Source\PSoC5/Check_Temp.c **** *
 130:Generated_Source\PSoC5/Check_Temp.c **** * Return:
 131:Generated_Source\PSoC5/Check_Temp.c **** *   None
 132:Generated_Source\PSoC5/Check_Temp.c **** *
 133:Generated_Source\PSoC5/Check_Temp.c **** *******************************************************************************/
 134:Generated_Source\PSoC5/Check_Temp.c **** void Check_Temp_Stop(void)
 135:Generated_Source\PSoC5/Check_Temp.c **** {
 136:Generated_Source\PSoC5/Check_Temp.c ****     /* Disable this interrupt. */
 137:Generated_Source\PSoC5/Check_Temp.c ****     Check_Temp_Disable();
 138:Generated_Source\PSoC5/Check_Temp.c **** 
 139:Generated_Source\PSoC5/Check_Temp.c ****     /* Set the ISR to point to the passive one. */
 140:Generated_Source\PSoC5/Check_Temp.c ****     Check_Temp_SetVector(&IntDefaultHandler);
 141:Generated_Source\PSoC5/Check_Temp.c **** }
 142:Generated_Source\PSoC5/Check_Temp.c **** 
 143:Generated_Source\PSoC5/Check_Temp.c **** 
 144:Generated_Source\PSoC5/Check_Temp.c **** /*******************************************************************************
ARM GAS  C:\Users\Joshua\AppData\Local\Temp\cceSkfzH.s 			page 4


 145:Generated_Source\PSoC5/Check_Temp.c **** * Function Name: Check_Temp_Interrupt
 146:Generated_Source\PSoC5/Check_Temp.c **** ********************************************************************************
 147:Generated_Source\PSoC5/Check_Temp.c **** *
 148:Generated_Source\PSoC5/Check_Temp.c **** * Summary:
 149:Generated_Source\PSoC5/Check_Temp.c **** *   The default Interrupt Service Routine for Check_Temp.
 150:Generated_Source\PSoC5/Check_Temp.c **** *
 151:Generated_Source\PSoC5/Check_Temp.c **** *   Add custom code between the coments to keep the next version of this file
 152:Generated_Source\PSoC5/Check_Temp.c **** *   from over writting your code.
 153:Generated_Source\PSoC5/Check_Temp.c **** *
 154:Generated_Source\PSoC5/Check_Temp.c **** * Parameters:  
 155:Generated_Source\PSoC5/Check_Temp.c **** *
 156:Generated_Source\PSoC5/Check_Temp.c **** * Return:
 157:Generated_Source\PSoC5/Check_Temp.c **** *   None
 158:Generated_Source\PSoC5/Check_Temp.c **** *
 159:Generated_Source\PSoC5/Check_Temp.c **** *******************************************************************************/
 160:Generated_Source\PSoC5/Check_Temp.c **** CY_ISR(Check_Temp_Interrupt)
 161:Generated_Source\PSoC5/Check_Temp.c **** {
  28              		.loc 1 161 0
  29              		.cfi_startproc
  30              		@ args = 0, pretend = 0, frame = 0
  31              		@ frame_needed = 0, uses_anonymous_args = 0
  32              		@ link register save eliminated.
  33 0000 7047     		bx	lr
  34              		.cfi_endproc
  35              	.LFE67:
  36              		.size	Check_Temp_Interrupt, .-Check_Temp_Interrupt
  37 0002 00BF     		.section	.text.Check_Temp_SetVector,"ax",%progbits
  38              		.align	2
  39              		.global	Check_Temp_SetVector
  40              		.thumb
  41              		.thumb_func
  42              		.type	Check_Temp_SetVector, %function
  43              	Check_Temp_SetVector:
  44              	.LFB68:
 162:Generated_Source\PSoC5/Check_Temp.c ****     #ifdef Check_Temp_INTERRUPT_INTERRUPT_CALLBACK
 163:Generated_Source\PSoC5/Check_Temp.c ****         Check_Temp_Interrupt_InterruptCallback();
 164:Generated_Source\PSoC5/Check_Temp.c ****     #endif /* Check_Temp_INTERRUPT_INTERRUPT_CALLBACK */ 
 165:Generated_Source\PSoC5/Check_Temp.c **** 
 166:Generated_Source\PSoC5/Check_Temp.c ****     /*  Place your Interrupt code here. */
 167:Generated_Source\PSoC5/Check_Temp.c ****     /* `#START Check_Temp_Interrupt` */
 168:Generated_Source\PSoC5/Check_Temp.c ****     if(Not_Runing==0){
 169:Generated_Source\PSoC5/Check_Temp.c ****     GetTemp();
 170:Generated_Source\PSoC5/Check_Temp.c ****     }
 171:Generated_Source\PSoC5/Check_Temp.c ****     
 172:Generated_Source\PSoC5/Check_Temp.c ****     /* `#END` */
 173:Generated_Source\PSoC5/Check_Temp.c **** }
 174:Generated_Source\PSoC5/Check_Temp.c **** 
 175:Generated_Source\PSoC5/Check_Temp.c **** 
 176:Generated_Source\PSoC5/Check_Temp.c **** /*******************************************************************************
 177:Generated_Source\PSoC5/Check_Temp.c **** * Function Name: Check_Temp_SetVector
 178:Generated_Source\PSoC5/Check_Temp.c **** ********************************************************************************
 179:Generated_Source\PSoC5/Check_Temp.c **** *
 180:Generated_Source\PSoC5/Check_Temp.c **** * Summary:
 181:Generated_Source\PSoC5/Check_Temp.c **** *   Change the ISR vector for the Interrupt. Note calling Check_Temp_Start
 182:Generated_Source\PSoC5/Check_Temp.c **** *   will override any effect this method would have had. To set the vector 
 183:Generated_Source\PSoC5/Check_Temp.c **** *   before the component has been started use Check_Temp_StartEx instead.
 184:Generated_Source\PSoC5/Check_Temp.c **** * 
ARM GAS  C:\Users\Joshua\AppData\Local\Temp\cceSkfzH.s 			page 5


 185:Generated_Source\PSoC5/Check_Temp.c **** *   When defining ISR functions, the CY_ISR and CY_ISR_PROTO macros should be 
 186:Generated_Source\PSoC5/Check_Temp.c **** *   used to provide consistent definition across compilers:
 187:Generated_Source\PSoC5/Check_Temp.c **** *
 188:Generated_Source\PSoC5/Check_Temp.c **** *   Function definition example:
 189:Generated_Source\PSoC5/Check_Temp.c **** *   CY_ISR(MyISR)
 190:Generated_Source\PSoC5/Check_Temp.c **** *   {
 191:Generated_Source\PSoC5/Check_Temp.c **** *   }
 192:Generated_Source\PSoC5/Check_Temp.c **** *
 193:Generated_Source\PSoC5/Check_Temp.c **** *   Function prototype example:
 194:Generated_Source\PSoC5/Check_Temp.c **** *     CY_ISR_PROTO(MyISR);
 195:Generated_Source\PSoC5/Check_Temp.c **** *
 196:Generated_Source\PSoC5/Check_Temp.c **** * Parameters:
 197:Generated_Source\PSoC5/Check_Temp.c **** *   address: Address of the ISR to set in the interrupt vector table.
 198:Generated_Source\PSoC5/Check_Temp.c **** *
 199:Generated_Source\PSoC5/Check_Temp.c **** * Return:
 200:Generated_Source\PSoC5/Check_Temp.c **** *   None
 201:Generated_Source\PSoC5/Check_Temp.c **** *
 202:Generated_Source\PSoC5/Check_Temp.c **** *******************************************************************************/
 203:Generated_Source\PSoC5/Check_Temp.c **** void Check_Temp_SetVector(cyisraddress address)
 204:Generated_Source\PSoC5/Check_Temp.c **** {
  45              		.loc 1 204 0
  46              		.cfi_startproc
  47              		@ args = 0, pretend = 0, frame = 0
  48              		@ frame_needed = 0, uses_anonymous_args = 0
  49              		@ link register save eliminated.
  50              	.LVL0:
 205:Generated_Source\PSoC5/Check_Temp.c ****     cyisraddress * ramVectorTable;
 206:Generated_Source\PSoC5/Check_Temp.c **** 
 207:Generated_Source\PSoC5/Check_Temp.c ****     ramVectorTable = (cyisraddress *) *CYINT_VECT_TABLE;
  51              		.loc 1 207 0
  52 0000 014B     		ldr	r3, .L3
  53 0002 1B68     		ldr	r3, [r3]
  54              	.LVL1:
 208:Generated_Source\PSoC5/Check_Temp.c **** 
 209:Generated_Source\PSoC5/Check_Temp.c ****     ramVectorTable[CYINT_IRQ_BASE + (uint32)Check_Temp__INTC_NUMBER] = address;
  55              		.loc 1 209 0
  56 0004 1864     		str	r0, [r3, #64]
  57 0006 7047     		bx	lr
  58              	.L4:
  59              		.align	2
  60              	.L3:
  61 0008 08ED00E0 		.word	-536810232
  62              		.cfi_endproc
  63              	.LFE68:
  64              		.size	Check_Temp_SetVector, .-Check_Temp_SetVector
  65              		.section	.text.Check_Temp_GetVector,"ax",%progbits
  66              		.align	2
  67              		.global	Check_Temp_GetVector
  68              		.thumb
  69              		.thumb_func
  70              		.type	Check_Temp_GetVector, %function
  71              	Check_Temp_GetVector:
  72              	.LFB69:
 210:Generated_Source\PSoC5/Check_Temp.c **** }
 211:Generated_Source\PSoC5/Check_Temp.c **** 
 212:Generated_Source\PSoC5/Check_Temp.c **** 
 213:Generated_Source\PSoC5/Check_Temp.c **** /*******************************************************************************
ARM GAS  C:\Users\Joshua\AppData\Local\Temp\cceSkfzH.s 			page 6


 214:Generated_Source\PSoC5/Check_Temp.c **** * Function Name: Check_Temp_GetVector
 215:Generated_Source\PSoC5/Check_Temp.c **** ********************************************************************************
 216:Generated_Source\PSoC5/Check_Temp.c **** *
 217:Generated_Source\PSoC5/Check_Temp.c **** * Summary:
 218:Generated_Source\PSoC5/Check_Temp.c **** *   Gets the "address" of the current ISR vector for the Interrupt.
 219:Generated_Source\PSoC5/Check_Temp.c **** *
 220:Generated_Source\PSoC5/Check_Temp.c **** * Parameters:
 221:Generated_Source\PSoC5/Check_Temp.c **** *   None
 222:Generated_Source\PSoC5/Check_Temp.c **** *
 223:Generated_Source\PSoC5/Check_Temp.c **** * Return:
 224:Generated_Source\PSoC5/Check_Temp.c **** *   Address of the ISR in the interrupt vector table.
 225:Generated_Source\PSoC5/Check_Temp.c **** *
 226:Generated_Source\PSoC5/Check_Temp.c **** *******************************************************************************/
 227:Generated_Source\PSoC5/Check_Temp.c **** cyisraddress Check_Temp_GetVector(void)
 228:Generated_Source\PSoC5/Check_Temp.c **** {
  73              		.loc 1 228 0
  74              		.cfi_startproc
  75              		@ args = 0, pretend = 0, frame = 0
  76              		@ frame_needed = 0, uses_anonymous_args = 0
  77              		@ link register save eliminated.
 229:Generated_Source\PSoC5/Check_Temp.c ****     cyisraddress * ramVectorTable;
 230:Generated_Source\PSoC5/Check_Temp.c **** 
 231:Generated_Source\PSoC5/Check_Temp.c ****     ramVectorTable = (cyisraddress *) *CYINT_VECT_TABLE;
  78              		.loc 1 231 0
  79 0000 014B     		ldr	r3, .L6
  80 0002 1B68     		ldr	r3, [r3]
  81              	.LVL2:
 232:Generated_Source\PSoC5/Check_Temp.c **** 
 233:Generated_Source\PSoC5/Check_Temp.c ****     return ramVectorTable[CYINT_IRQ_BASE + (uint32)Check_Temp__INTC_NUMBER];
 234:Generated_Source\PSoC5/Check_Temp.c **** }
  82              		.loc 1 234 0
  83 0004 186C     		ldr	r0, [r3, #64]
  84 0006 7047     		bx	lr
  85              	.L7:
  86              		.align	2
  87              	.L6:
  88 0008 08ED00E0 		.word	-536810232
  89              		.cfi_endproc
  90              	.LFE69:
  91              		.size	Check_Temp_GetVector, .-Check_Temp_GetVector
  92              		.section	.text.Check_Temp_SetPriority,"ax",%progbits
  93              		.align	2
  94              		.global	Check_Temp_SetPriority
  95              		.thumb
  96              		.thumb_func
  97              		.type	Check_Temp_SetPriority, %function
  98              	Check_Temp_SetPriority:
  99              	.LFB70:
 235:Generated_Source\PSoC5/Check_Temp.c **** 
 236:Generated_Source\PSoC5/Check_Temp.c **** 
 237:Generated_Source\PSoC5/Check_Temp.c **** /*******************************************************************************
 238:Generated_Source\PSoC5/Check_Temp.c **** * Function Name: Check_Temp_SetPriority
 239:Generated_Source\PSoC5/Check_Temp.c **** ********************************************************************************
 240:Generated_Source\PSoC5/Check_Temp.c **** *
 241:Generated_Source\PSoC5/Check_Temp.c **** * Summary:
 242:Generated_Source\PSoC5/Check_Temp.c **** *   Sets the Priority of the Interrupt. 
 243:Generated_Source\PSoC5/Check_Temp.c **** *
ARM GAS  C:\Users\Joshua\AppData\Local\Temp\cceSkfzH.s 			page 7


 244:Generated_Source\PSoC5/Check_Temp.c **** *   Note calling Check_Temp_Start or Check_Temp_StartEx will 
 245:Generated_Source\PSoC5/Check_Temp.c **** *   override any effect this API would have had. This API should only be called
 246:Generated_Source\PSoC5/Check_Temp.c **** *   after Check_Temp_Start or Check_Temp_StartEx has been called. 
 247:Generated_Source\PSoC5/Check_Temp.c **** *   To set the initial priority for the component, use the Design-Wide Resources
 248:Generated_Source\PSoC5/Check_Temp.c **** *   Interrupt Editor.
 249:Generated_Source\PSoC5/Check_Temp.c **** *
 250:Generated_Source\PSoC5/Check_Temp.c **** *   Note This API has no effect on Non-maskable interrupt NMI).
 251:Generated_Source\PSoC5/Check_Temp.c **** *
 252:Generated_Source\PSoC5/Check_Temp.c **** * Parameters:
 253:Generated_Source\PSoC5/Check_Temp.c **** *   priority: Priority of the interrupt, 0 being the highest priority
 254:Generated_Source\PSoC5/Check_Temp.c **** *             PSoC 3 and PSoC 5LP: Priority is from 0 to 7.
 255:Generated_Source\PSoC5/Check_Temp.c **** *             PSoC 4: Priority is from 0 to 3.
 256:Generated_Source\PSoC5/Check_Temp.c **** *
 257:Generated_Source\PSoC5/Check_Temp.c **** * Return:
 258:Generated_Source\PSoC5/Check_Temp.c **** *   None
 259:Generated_Source\PSoC5/Check_Temp.c **** *
 260:Generated_Source\PSoC5/Check_Temp.c **** *******************************************************************************/
 261:Generated_Source\PSoC5/Check_Temp.c **** void Check_Temp_SetPriority(uint8 priority)
 262:Generated_Source\PSoC5/Check_Temp.c **** {
 100              		.loc 1 262 0
 101              		.cfi_startproc
 102              		@ args = 0, pretend = 0, frame = 0
 103              		@ frame_needed = 0, uses_anonymous_args = 0
 104              		@ link register save eliminated.
 105              	.LVL3:
 263:Generated_Source\PSoC5/Check_Temp.c ****     *Check_Temp_INTC_PRIOR = priority << 5;
 106              		.loc 1 263 0
 107 0000 4001     		lsls	r0, r0, #5
 108              	.LVL4:
 109 0002 C0B2     		uxtb	r0, r0
 110 0004 014B     		ldr	r3, .L9
 111 0006 1870     		strb	r0, [r3]
 112 0008 7047     		bx	lr
 113              	.L10:
 114 000a 00BF     		.align	2
 115              	.L9:
 116 000c 00E400E0 		.word	-536812544
 117              		.cfi_endproc
 118              	.LFE70:
 119              		.size	Check_Temp_SetPriority, .-Check_Temp_SetPriority
 120              		.section	.text.Check_Temp_GetPriority,"ax",%progbits
 121              		.align	2
 122              		.global	Check_Temp_GetPriority
 123              		.thumb
 124              		.thumb_func
 125              		.type	Check_Temp_GetPriority, %function
 126              	Check_Temp_GetPriority:
 127              	.LFB71:
 264:Generated_Source\PSoC5/Check_Temp.c **** }
 265:Generated_Source\PSoC5/Check_Temp.c **** 
 266:Generated_Source\PSoC5/Check_Temp.c **** 
 267:Generated_Source\PSoC5/Check_Temp.c **** /*******************************************************************************
 268:Generated_Source\PSoC5/Check_Temp.c **** * Function Name: Check_Temp_GetPriority
 269:Generated_Source\PSoC5/Check_Temp.c **** ********************************************************************************
 270:Generated_Source\PSoC5/Check_Temp.c **** *
 271:Generated_Source\PSoC5/Check_Temp.c **** * Summary:
 272:Generated_Source\PSoC5/Check_Temp.c **** *   Gets the Priority of the Interrupt.
ARM GAS  C:\Users\Joshua\AppData\Local\Temp\cceSkfzH.s 			page 8


 273:Generated_Source\PSoC5/Check_Temp.c **** *
 274:Generated_Source\PSoC5/Check_Temp.c **** * Parameters:
 275:Generated_Source\PSoC5/Check_Temp.c **** *   None
 276:Generated_Source\PSoC5/Check_Temp.c **** *
 277:Generated_Source\PSoC5/Check_Temp.c **** * Return:
 278:Generated_Source\PSoC5/Check_Temp.c **** *   Priority of the interrupt, 0 being the highest priority
 279:Generated_Source\PSoC5/Check_Temp.c **** *    PSoC 3 and PSoC 5LP: Priority is from 0 to 7.
 280:Generated_Source\PSoC5/Check_Temp.c **** *    PSoC 4: Priority is from 0 to 3.
 281:Generated_Source\PSoC5/Check_Temp.c **** *
 282:Generated_Source\PSoC5/Check_Temp.c **** *******************************************************************************/
 283:Generated_Source\PSoC5/Check_Temp.c **** uint8 Check_Temp_GetPriority(void)
 284:Generated_Source\PSoC5/Check_Temp.c **** {
 128              		.loc 1 284 0
 129              		.cfi_startproc
 130              		@ args = 0, pretend = 0, frame = 0
 131              		@ frame_needed = 0, uses_anonymous_args = 0
 132              		@ link register save eliminated.
 285:Generated_Source\PSoC5/Check_Temp.c ****     uint8 priority;
 286:Generated_Source\PSoC5/Check_Temp.c **** 
 287:Generated_Source\PSoC5/Check_Temp.c **** 
 288:Generated_Source\PSoC5/Check_Temp.c ****     priority = *Check_Temp_INTC_PRIOR >> 5;
 133              		.loc 1 288 0
 134 0000 014B     		ldr	r3, .L12
 135 0002 1878     		ldrb	r0, [r3]	@ zero_extendqisi2
 136              	.LVL5:
 289:Generated_Source\PSoC5/Check_Temp.c **** 
 290:Generated_Source\PSoC5/Check_Temp.c ****     return priority;
 291:Generated_Source\PSoC5/Check_Temp.c **** }
 137              		.loc 1 291 0
 138 0004 4009     		lsrs	r0, r0, #5
 139              	.LVL6:
 140 0006 7047     		bx	lr
 141              	.L13:
 142              		.align	2
 143              	.L12:
 144 0008 00E400E0 		.word	-536812544
 145              		.cfi_endproc
 146              	.LFE71:
 147              		.size	Check_Temp_GetPriority, .-Check_Temp_GetPriority
 148              		.section	.text.Check_Temp_Enable,"ax",%progbits
 149              		.align	2
 150              		.global	Check_Temp_Enable
 151              		.thumb
 152              		.thumb_func
 153              		.type	Check_Temp_Enable, %function
 154              	Check_Temp_Enable:
 155              	.LFB72:
 292:Generated_Source\PSoC5/Check_Temp.c **** 
 293:Generated_Source\PSoC5/Check_Temp.c **** 
 294:Generated_Source\PSoC5/Check_Temp.c **** /*******************************************************************************
 295:Generated_Source\PSoC5/Check_Temp.c **** * Function Name: Check_Temp_Enable
 296:Generated_Source\PSoC5/Check_Temp.c **** ********************************************************************************
 297:Generated_Source\PSoC5/Check_Temp.c **** *
 298:Generated_Source\PSoC5/Check_Temp.c **** * Summary:
 299:Generated_Source\PSoC5/Check_Temp.c **** *   Enables the interrupt to the interrupt controller. Do not call this function
 300:Generated_Source\PSoC5/Check_Temp.c **** *   unless ISR_Start() has been called or the functionality of the ISR_Start() 
 301:Generated_Source\PSoC5/Check_Temp.c **** *   function, which sets the vector and the priority, has been called.
ARM GAS  C:\Users\Joshua\AppData\Local\Temp\cceSkfzH.s 			page 9


 302:Generated_Source\PSoC5/Check_Temp.c **** *
 303:Generated_Source\PSoC5/Check_Temp.c **** * Parameters:
 304:Generated_Source\PSoC5/Check_Temp.c **** *   None
 305:Generated_Source\PSoC5/Check_Temp.c **** *
 306:Generated_Source\PSoC5/Check_Temp.c **** * Return:
 307:Generated_Source\PSoC5/Check_Temp.c **** *   None
 308:Generated_Source\PSoC5/Check_Temp.c **** *
 309:Generated_Source\PSoC5/Check_Temp.c **** *******************************************************************************/
 310:Generated_Source\PSoC5/Check_Temp.c **** void Check_Temp_Enable(void)
 311:Generated_Source\PSoC5/Check_Temp.c **** {
 156              		.loc 1 311 0
 157              		.cfi_startproc
 158              		@ args = 0, pretend = 0, frame = 0
 159              		@ frame_needed = 0, uses_anonymous_args = 0
 160              		@ link register save eliminated.
 312:Generated_Source\PSoC5/Check_Temp.c ****     /* Enable the general interrupt. */
 313:Generated_Source\PSoC5/Check_Temp.c ****     *Check_Temp_INTC_SET_EN = Check_Temp__INTC_MASK;
 161              		.loc 1 313 0
 162 0000 0122     		movs	r2, #1
 163 0002 014B     		ldr	r3, .L15
 164 0004 1A60     		str	r2, [r3]
 165 0006 7047     		bx	lr
 166              	.L16:
 167              		.align	2
 168              	.L15:
 169 0008 00E100E0 		.word	-536813312
 170              		.cfi_endproc
 171              	.LFE72:
 172              		.size	Check_Temp_Enable, .-Check_Temp_Enable
 173              		.section	.text.Check_Temp_GetState,"ax",%progbits
 174              		.align	2
 175              		.global	Check_Temp_GetState
 176              		.thumb
 177              		.thumb_func
 178              		.type	Check_Temp_GetState, %function
 179              	Check_Temp_GetState:
 180              	.LFB73:
 314:Generated_Source\PSoC5/Check_Temp.c **** }
 315:Generated_Source\PSoC5/Check_Temp.c **** 
 316:Generated_Source\PSoC5/Check_Temp.c **** 
 317:Generated_Source\PSoC5/Check_Temp.c **** /*******************************************************************************
 318:Generated_Source\PSoC5/Check_Temp.c **** * Function Name: Check_Temp_GetState
 319:Generated_Source\PSoC5/Check_Temp.c **** ********************************************************************************
 320:Generated_Source\PSoC5/Check_Temp.c **** *
 321:Generated_Source\PSoC5/Check_Temp.c **** * Summary:
 322:Generated_Source\PSoC5/Check_Temp.c **** *   Gets the state (enabled, disabled) of the Interrupt.
 323:Generated_Source\PSoC5/Check_Temp.c **** *
 324:Generated_Source\PSoC5/Check_Temp.c **** * Parameters:
 325:Generated_Source\PSoC5/Check_Temp.c **** *   None
 326:Generated_Source\PSoC5/Check_Temp.c **** *
 327:Generated_Source\PSoC5/Check_Temp.c **** * Return:
 328:Generated_Source\PSoC5/Check_Temp.c **** *   1 if enabled, 0 if disabled.
 329:Generated_Source\PSoC5/Check_Temp.c **** *
 330:Generated_Source\PSoC5/Check_Temp.c **** *******************************************************************************/
 331:Generated_Source\PSoC5/Check_Temp.c **** uint8 Check_Temp_GetState(void)
 332:Generated_Source\PSoC5/Check_Temp.c **** {
 181              		.loc 1 332 0
ARM GAS  C:\Users\Joshua\AppData\Local\Temp\cceSkfzH.s 			page 10


 182              		.cfi_startproc
 183              		@ args = 0, pretend = 0, frame = 0
 184              		@ frame_needed = 0, uses_anonymous_args = 0
 185              		@ link register save eliminated.
 333:Generated_Source\PSoC5/Check_Temp.c ****     /* Get the state of the general interrupt. */
 334:Generated_Source\PSoC5/Check_Temp.c ****     return ((*Check_Temp_INTC_SET_EN & (uint32)Check_Temp__INTC_MASK) != 0u) ? 1u:0u;
 186              		.loc 1 334 0
 187 0000 024B     		ldr	r3, .L18
 188 0002 1868     		ldr	r0, [r3]
 335:Generated_Source\PSoC5/Check_Temp.c **** }
 189              		.loc 1 335 0
 190 0004 00F00100 		and	r0, r0, #1
 191 0008 7047     		bx	lr
 192              	.L19:
 193 000a 00BF     		.align	2
 194              	.L18:
 195 000c 00E100E0 		.word	-536813312
 196              		.cfi_endproc
 197              	.LFE73:
 198              		.size	Check_Temp_GetState, .-Check_Temp_GetState
 199              		.section	.text.Check_Temp_Disable,"ax",%progbits
 200              		.align	2
 201              		.global	Check_Temp_Disable
 202              		.thumb
 203              		.thumb_func
 204              		.type	Check_Temp_Disable, %function
 205              	Check_Temp_Disable:
 206              	.LFB74:
 336:Generated_Source\PSoC5/Check_Temp.c **** 
 337:Generated_Source\PSoC5/Check_Temp.c **** 
 338:Generated_Source\PSoC5/Check_Temp.c **** /*******************************************************************************
 339:Generated_Source\PSoC5/Check_Temp.c **** * Function Name: Check_Temp_Disable
 340:Generated_Source\PSoC5/Check_Temp.c **** ********************************************************************************
 341:Generated_Source\PSoC5/Check_Temp.c **** *
 342:Generated_Source\PSoC5/Check_Temp.c **** * Summary:
 343:Generated_Source\PSoC5/Check_Temp.c **** *   Disables the Interrupt in the interrupt controller.
 344:Generated_Source\PSoC5/Check_Temp.c **** *
 345:Generated_Source\PSoC5/Check_Temp.c **** * Parameters:
 346:Generated_Source\PSoC5/Check_Temp.c **** *   None
 347:Generated_Source\PSoC5/Check_Temp.c **** *
 348:Generated_Source\PSoC5/Check_Temp.c **** * Return:
 349:Generated_Source\PSoC5/Check_Temp.c **** *   None
 350:Generated_Source\PSoC5/Check_Temp.c **** *
 351:Generated_Source\PSoC5/Check_Temp.c **** *******************************************************************************/
 352:Generated_Source\PSoC5/Check_Temp.c **** void Check_Temp_Disable(void)
 353:Generated_Source\PSoC5/Check_Temp.c **** {
 207              		.loc 1 353 0
 208              		.cfi_startproc
 209              		@ args = 0, pretend = 0, frame = 0
 210              		@ frame_needed = 0, uses_anonymous_args = 0
 211              		@ link register save eliminated.
 354:Generated_Source\PSoC5/Check_Temp.c ****     /* Disable the general interrupt. */
 355:Generated_Source\PSoC5/Check_Temp.c ****     *Check_Temp_INTC_CLR_EN = Check_Temp__INTC_MASK;
 212              		.loc 1 355 0
 213 0000 0122     		movs	r2, #1
 214 0002 014B     		ldr	r3, .L21
 215 0004 1A60     		str	r2, [r3]
ARM GAS  C:\Users\Joshua\AppData\Local\Temp\cceSkfzH.s 			page 11


 216 0006 7047     		bx	lr
 217              	.L22:
 218              		.align	2
 219              	.L21:
 220 0008 80E100E0 		.word	-536813184
 221              		.cfi_endproc
 222              	.LFE74:
 223              		.size	Check_Temp_Disable, .-Check_Temp_Disable
 224              		.section	.text.Check_Temp_Start,"ax",%progbits
 225              		.align	2
 226              		.global	Check_Temp_Start
 227              		.thumb
 228              		.thumb_func
 229              		.type	Check_Temp_Start, %function
 230              	Check_Temp_Start:
 231              	.LFB64:
  62:Generated_Source\PSoC5/Check_Temp.c ****     /* For all we know the interrupt is active. */
 232              		.loc 1 62 0
 233              		.cfi_startproc
 234              		@ args = 0, pretend = 0, frame = 0
 235              		@ frame_needed = 0, uses_anonymous_args = 0
 236 0000 08B5     		push	{r3, lr}
 237              		.cfi_def_cfa_offset 8
 238              		.cfi_offset 3, -8
 239              		.cfi_offset 14, -4
  64:Generated_Source\PSoC5/Check_Temp.c **** 
 240              		.loc 1 64 0
 241 0002 FFF7FEFF 		bl	Check_Temp_Disable
 242              	.LVL7:
  67:Generated_Source\PSoC5/Check_Temp.c **** 
 243              		.loc 1 67 0
 244 0006 0448     		ldr	r0, .L25
 245 0008 FFF7FEFF 		bl	Check_Temp_SetVector
 246              	.LVL8:
  70:Generated_Source\PSoC5/Check_Temp.c **** 
 247              		.loc 1 70 0
 248 000c 0720     		movs	r0, #7
 249 000e FFF7FEFF 		bl	Check_Temp_SetPriority
 250              	.LVL9:
  73:Generated_Source\PSoC5/Check_Temp.c **** }
 251              		.loc 1 73 0
 252 0012 FFF7FEFF 		bl	Check_Temp_Enable
 253              	.LVL10:
 254 0016 08BD     		pop	{r3, pc}
 255              	.L26:
 256              		.align	2
 257              	.L25:
 258 0018 00000000 		.word	Check_Temp_Interrupt
 259              		.cfi_endproc
 260              	.LFE64:
 261              		.size	Check_Temp_Start, .-Check_Temp_Start
 262              		.section	.text.Check_Temp_StartEx,"ax",%progbits
 263              		.align	2
 264              		.global	Check_Temp_StartEx
 265              		.thumb
 266              		.thumb_func
 267              		.type	Check_Temp_StartEx, %function
ARM GAS  C:\Users\Joshua\AppData\Local\Temp\cceSkfzH.s 			page 12


 268              	Check_Temp_StartEx:
 269              	.LFB65:
 105:Generated_Source\PSoC5/Check_Temp.c ****     /* For all we know the interrupt is active. */
 270              		.loc 1 105 0
 271              		.cfi_startproc
 272              		@ args = 0, pretend = 0, frame = 0
 273              		@ frame_needed = 0, uses_anonymous_args = 0
 274              	.LVL11:
 275 0000 10B5     		push	{r4, lr}
 276              		.cfi_def_cfa_offset 8
 277              		.cfi_offset 4, -8
 278              		.cfi_offset 14, -4
 279 0002 0446     		mov	r4, r0
 107:Generated_Source\PSoC5/Check_Temp.c **** 
 280              		.loc 1 107 0
 281 0004 FFF7FEFF 		bl	Check_Temp_Disable
 282              	.LVL12:
 110:Generated_Source\PSoC5/Check_Temp.c **** 
 283              		.loc 1 110 0
 284 0008 2046     		mov	r0, r4
 285 000a FFF7FEFF 		bl	Check_Temp_SetVector
 286              	.LVL13:
 113:Generated_Source\PSoC5/Check_Temp.c **** 
 287              		.loc 1 113 0
 288 000e 0720     		movs	r0, #7
 289 0010 FFF7FEFF 		bl	Check_Temp_SetPriority
 290              	.LVL14:
 116:Generated_Source\PSoC5/Check_Temp.c **** }
 291              		.loc 1 116 0
 292 0014 FFF7FEFF 		bl	Check_Temp_Enable
 293              	.LVL15:
 294 0018 10BD     		pop	{r4, pc}
 295              		.cfi_endproc
 296              	.LFE65:
 297              		.size	Check_Temp_StartEx, .-Check_Temp_StartEx
 298 001a 00BF     		.section	.text.Check_Temp_Stop,"ax",%progbits
 299              		.align	2
 300              		.global	Check_Temp_Stop
 301              		.thumb
 302              		.thumb_func
 303              		.type	Check_Temp_Stop, %function
 304              	Check_Temp_Stop:
 305              	.LFB66:
 135:Generated_Source\PSoC5/Check_Temp.c ****     /* Disable this interrupt. */
 306              		.loc 1 135 0
 307              		.cfi_startproc
 308              		@ args = 0, pretend = 0, frame = 0
 309              		@ frame_needed = 0, uses_anonymous_args = 0
 310 0000 08B5     		push	{r3, lr}
 311              		.cfi_def_cfa_offset 8
 312              		.cfi_offset 3, -8
 313              		.cfi_offset 14, -4
 137:Generated_Source\PSoC5/Check_Temp.c **** 
 314              		.loc 1 137 0
 315 0002 FFF7FEFF 		bl	Check_Temp_Disable
 316              	.LVL16:
 140:Generated_Source\PSoC5/Check_Temp.c **** }
ARM GAS  C:\Users\Joshua\AppData\Local\Temp\cceSkfzH.s 			page 13


 317              		.loc 1 140 0
 318 0006 0248     		ldr	r0, .L31
 319 0008 FFF7FEFF 		bl	Check_Temp_SetVector
 320              	.LVL17:
 321 000c 08BD     		pop	{r3, pc}
 322              	.L32:
 323 000e 00BF     		.align	2
 324              	.L31:
 325 0010 00000000 		.word	IntDefaultHandler
 326              		.cfi_endproc
 327              	.LFE66:
 328              		.size	Check_Temp_Stop, .-Check_Temp_Stop
 329              		.section	.text.Check_Temp_SetPending,"ax",%progbits
 330              		.align	2
 331              		.global	Check_Temp_SetPending
 332              		.thumb
 333              		.thumb_func
 334              		.type	Check_Temp_SetPending, %function
 335              	Check_Temp_SetPending:
 336              	.LFB75:
 356:Generated_Source\PSoC5/Check_Temp.c **** }
 357:Generated_Source\PSoC5/Check_Temp.c **** 
 358:Generated_Source\PSoC5/Check_Temp.c **** 
 359:Generated_Source\PSoC5/Check_Temp.c **** /*******************************************************************************
 360:Generated_Source\PSoC5/Check_Temp.c **** * Function Name: Check_Temp_SetPending
 361:Generated_Source\PSoC5/Check_Temp.c **** ********************************************************************************
 362:Generated_Source\PSoC5/Check_Temp.c **** *
 363:Generated_Source\PSoC5/Check_Temp.c **** * Summary:
 364:Generated_Source\PSoC5/Check_Temp.c **** *   Causes the Interrupt to enter the pending state, a software method of
 365:Generated_Source\PSoC5/Check_Temp.c **** *   generating the interrupt.
 366:Generated_Source\PSoC5/Check_Temp.c **** *
 367:Generated_Source\PSoC5/Check_Temp.c **** * Parameters:
 368:Generated_Source\PSoC5/Check_Temp.c **** *   None
 369:Generated_Source\PSoC5/Check_Temp.c **** *
 370:Generated_Source\PSoC5/Check_Temp.c **** * Return:
 371:Generated_Source\PSoC5/Check_Temp.c **** *   None
 372:Generated_Source\PSoC5/Check_Temp.c **** *
 373:Generated_Source\PSoC5/Check_Temp.c **** * Side Effects:
 374:Generated_Source\PSoC5/Check_Temp.c **** *   If interrupts are enabled and the interrupt is set up properly, the ISR is
 375:Generated_Source\PSoC5/Check_Temp.c **** *   entered (depending on the priority of this interrupt and other pending 
 376:Generated_Source\PSoC5/Check_Temp.c **** *   interrupts).
 377:Generated_Source\PSoC5/Check_Temp.c **** *
 378:Generated_Source\PSoC5/Check_Temp.c **** *******************************************************************************/
 379:Generated_Source\PSoC5/Check_Temp.c **** void Check_Temp_SetPending(void)
 380:Generated_Source\PSoC5/Check_Temp.c **** {
 337              		.loc 1 380 0
 338              		.cfi_startproc
 339              		@ args = 0, pretend = 0, frame = 0
 340              		@ frame_needed = 0, uses_anonymous_args = 0
 341              		@ link register save eliminated.
 381:Generated_Source\PSoC5/Check_Temp.c ****     *Check_Temp_INTC_SET_PD = Check_Temp__INTC_MASK;
 342              		.loc 1 381 0
 343 0000 0122     		movs	r2, #1
 344 0002 014B     		ldr	r3, .L34
 345 0004 1A60     		str	r2, [r3]
 346 0006 7047     		bx	lr
 347              	.L35:
ARM GAS  C:\Users\Joshua\AppData\Local\Temp\cceSkfzH.s 			page 14


 348              		.align	2
 349              	.L34:
 350 0008 00E200E0 		.word	-536813056
 351              		.cfi_endproc
 352              	.LFE75:
 353              		.size	Check_Temp_SetPending, .-Check_Temp_SetPending
 354              		.section	.text.Check_Temp_ClearPending,"ax",%progbits
 355              		.align	2
 356              		.global	Check_Temp_ClearPending
 357              		.thumb
 358              		.thumb_func
 359              		.type	Check_Temp_ClearPending, %function
 360              	Check_Temp_ClearPending:
 361              	.LFB76:
 382:Generated_Source\PSoC5/Check_Temp.c **** }
 383:Generated_Source\PSoC5/Check_Temp.c **** 
 384:Generated_Source\PSoC5/Check_Temp.c **** 
 385:Generated_Source\PSoC5/Check_Temp.c **** /*******************************************************************************
 386:Generated_Source\PSoC5/Check_Temp.c **** * Function Name: Check_Temp_ClearPending
 387:Generated_Source\PSoC5/Check_Temp.c **** ********************************************************************************
 388:Generated_Source\PSoC5/Check_Temp.c **** *
 389:Generated_Source\PSoC5/Check_Temp.c **** * Summary:
 390:Generated_Source\PSoC5/Check_Temp.c **** *   Clears a pending interrupt in the interrupt controller.
 391:Generated_Source\PSoC5/Check_Temp.c **** *
 392:Generated_Source\PSoC5/Check_Temp.c **** *   Note Some interrupt sources are clear-on-read and require the block 
 393:Generated_Source\PSoC5/Check_Temp.c **** *   interrupt/status register to be read/cleared with the appropriate block API 
 394:Generated_Source\PSoC5/Check_Temp.c **** *   (GPIO, UART, and so on). Otherwise the ISR will continue to remain in 
 395:Generated_Source\PSoC5/Check_Temp.c **** *   pending state even though the interrupt itself is cleared using this API.
 396:Generated_Source\PSoC5/Check_Temp.c **** *
 397:Generated_Source\PSoC5/Check_Temp.c **** * Parameters:
 398:Generated_Source\PSoC5/Check_Temp.c **** *   None
 399:Generated_Source\PSoC5/Check_Temp.c **** *
 400:Generated_Source\PSoC5/Check_Temp.c **** * Return:
 401:Generated_Source\PSoC5/Check_Temp.c **** *   None
 402:Generated_Source\PSoC5/Check_Temp.c **** *
 403:Generated_Source\PSoC5/Check_Temp.c **** *******************************************************************************/
 404:Generated_Source\PSoC5/Check_Temp.c **** void Check_Temp_ClearPending(void)
 405:Generated_Source\PSoC5/Check_Temp.c **** {
 362              		.loc 1 405 0
 363              		.cfi_startproc
 364              		@ args = 0, pretend = 0, frame = 0
 365              		@ frame_needed = 0, uses_anonymous_args = 0
 366              		@ link register save eliminated.
 406:Generated_Source\PSoC5/Check_Temp.c ****     *Check_Temp_INTC_CLR_PD = Check_Temp__INTC_MASK;
 367              		.loc 1 406 0
 368 0000 0122     		movs	r2, #1
 369 0002 014B     		ldr	r3, .L37
 370 0004 1A60     		str	r2, [r3]
 371 0006 7047     		bx	lr
 372              	.L38:
 373              		.align	2
 374              	.L37:
 375 0008 80E200E0 		.word	-536812928
 376              		.cfi_endproc
 377              	.LFE76:
 378              		.size	Check_Temp_ClearPending, .-Check_Temp_ClearPending
 379              		.text
ARM GAS  C:\Users\Joshua\AppData\Local\Temp\cceSkfzH.s 			page 15


 380              	.Letext0:
 381              		.file 2 "c:\\program files (x86)\\cypress\\psoc creator\\4.1\\psoc creator\\import\\gnu\\arm\\5.4.
 382              		.file 3 "c:\\program files (x86)\\cypress\\psoc creator\\4.1\\psoc creator\\import\\gnu\\arm\\5.4.
 383              		.file 4 "Generated_Source\\PSoC5/cytypes.h"
 384              		.file 5 "Generated_Source\\PSoC5/core_cm3.h"