ARM GAS  C:\Users\Joshua\AppData\Local\Temp\ccRw6Wyd.s 			page 1


   1              		.syntax unified
   2              		.cpu cortex-m3
   3              		.fpu softvfp
   4              		.eabi_attribute 20, 1
   5              		.eabi_attribute 21, 1
   6              		.eabi_attribute 23, 3
   7              		.eabi_attribute 24, 1
   8              		.eabi_attribute 25, 1
   9              		.eabi_attribute 26, 1
  10              		.eabi_attribute 30, 1
  11              		.eabi_attribute 34, 1
  12              		.eabi_attribute 18, 4
  13              		.thumb
  14              		.syntax unified
  15              		.file	"cyfitter_cfg.c"
  16              		.text
  17              	.Ltext0:
  18              		.cfi_sections	.debug_frame
  19              		.section	.text.CyClockStartupError,"ax",%progbits
  20              		.align	2
  21              		.thumb
  22              		.thumb_func
  23              		.type	CyClockStartupError, %function
  24              	CyClockStartupError:
  25              	.LFB3:
  26              		.file 1 "Generated_Source\\PSoC5\\cyfitter_cfg.c"
   1:Generated_Source\PSoC5/cyfitter_cfg.c **** 
   2:Generated_Source\PSoC5/cyfitter_cfg.c **** /*******************************************************************************
   3:Generated_Source\PSoC5/cyfitter_cfg.c **** * File Name: cyfitter_cfg.c
   4:Generated_Source\PSoC5/cyfitter_cfg.c **** * 
   5:Generated_Source\PSoC5/cyfitter_cfg.c **** * PSoC Creator  4.1 Update 1
   6:Generated_Source\PSoC5/cyfitter_cfg.c **** *
   7:Generated_Source\PSoC5/cyfitter_cfg.c **** * Description:
   8:Generated_Source\PSoC5/cyfitter_cfg.c **** * This file contains device initialization code.
   9:Generated_Source\PSoC5/cyfitter_cfg.c **** * Except for the user defined sections in CyClockStartupError(), this file should not be modified.
  10:Generated_Source\PSoC5/cyfitter_cfg.c **** * This file is automatically generated by PSoC Creator.
  11:Generated_Source\PSoC5/cyfitter_cfg.c **** *
  12:Generated_Source\PSoC5/cyfitter_cfg.c **** ********************************************************************************
  13:Generated_Source\PSoC5/cyfitter_cfg.c **** * Copyright (c) 2007-2017 Cypress Semiconductor.  All rights reserved.
  14:Generated_Source\PSoC5/cyfitter_cfg.c **** * You may use this file only in accordance with the license, terms, conditions, 
  15:Generated_Source\PSoC5/cyfitter_cfg.c **** * disclaimers, and limitations in the end user license agreement accompanying 
  16:Generated_Source\PSoC5/cyfitter_cfg.c **** * the software package with which this file was provided.
  17:Generated_Source\PSoC5/cyfitter_cfg.c **** ********************************************************************************/
  18:Generated_Source\PSoC5/cyfitter_cfg.c **** 
  19:Generated_Source\PSoC5/cyfitter_cfg.c **** #include <string.h>
  20:Generated_Source\PSoC5/cyfitter_cfg.c **** #include "cytypes.h"
  21:Generated_Source\PSoC5/cyfitter_cfg.c **** #include "cydevice_trm.h"
  22:Generated_Source\PSoC5/cyfitter_cfg.c **** #include "cyfitter.h"
  23:Generated_Source\PSoC5/cyfitter_cfg.c **** #include "CyLib.h"
  24:Generated_Source\PSoC5/cyfitter_cfg.c **** #include "cyfitter_cfg.h"
  25:Generated_Source\PSoC5/cyfitter_cfg.c **** #include "cyapicallbacks.h"
  26:Generated_Source\PSoC5/cyfitter_cfg.c **** 
  27:Generated_Source\PSoC5/cyfitter_cfg.c **** #define CY_NEED_CYCLOCKSTARTUPERROR 1
  28:Generated_Source\PSoC5/cyfitter_cfg.c **** 
  29:Generated_Source\PSoC5/cyfitter_cfg.c **** 
  30:Generated_Source\PSoC5/cyfitter_cfg.c **** #if defined(__GNUC__) || defined(__ARMCC_VERSION)
  31:Generated_Source\PSoC5/cyfitter_cfg.c ****     #define CYPACKED 
ARM GAS  C:\Users\Joshua\AppData\Local\Temp\ccRw6Wyd.s 			page 2


  32:Generated_Source\PSoC5/cyfitter_cfg.c ****     #define CYPACKED_ATTR __attribute__ ((packed))
  33:Generated_Source\PSoC5/cyfitter_cfg.c ****     #define CYALIGNED __attribute__ ((aligned))
  34:Generated_Source\PSoC5/cyfitter_cfg.c ****     #define CY_CFG_UNUSED __attribute__ ((unused))
  35:Generated_Source\PSoC5/cyfitter_cfg.c ****     #ifndef CY_CFG_SECTION
  36:Generated_Source\PSoC5/cyfitter_cfg.c ****         #define CY_CFG_SECTION __attribute__ ((section(".psocinit")))
  37:Generated_Source\PSoC5/cyfitter_cfg.c ****     #endif
  38:Generated_Source\PSoC5/cyfitter_cfg.c ****     
  39:Generated_Source\PSoC5/cyfitter_cfg.c ****     #if defined(__ARMCC_VERSION)
  40:Generated_Source\PSoC5/cyfitter_cfg.c ****         #define CY_CFG_MEMORY_BARRIER() __memory_changed()
  41:Generated_Source\PSoC5/cyfitter_cfg.c ****     #else
  42:Generated_Source\PSoC5/cyfitter_cfg.c ****         #define CY_CFG_MEMORY_BARRIER() __sync_synchronize()
  43:Generated_Source\PSoC5/cyfitter_cfg.c ****     #endif
  44:Generated_Source\PSoC5/cyfitter_cfg.c ****     
  45:Generated_Source\PSoC5/cyfitter_cfg.c **** #elif defined(__ICCARM__)
  46:Generated_Source\PSoC5/cyfitter_cfg.c ****     #include <intrinsics.h>
  47:Generated_Source\PSoC5/cyfitter_cfg.c **** 
  48:Generated_Source\PSoC5/cyfitter_cfg.c ****     #define CYPACKED __packed
  49:Generated_Source\PSoC5/cyfitter_cfg.c ****     #define CYPACKED_ATTR 
  50:Generated_Source\PSoC5/cyfitter_cfg.c ****     #define CYALIGNED _Pragma("data_alignment=4")
  51:Generated_Source\PSoC5/cyfitter_cfg.c ****     #define CY_CFG_UNUSED _Pragma("diag_suppress=Pe177")
  52:Generated_Source\PSoC5/cyfitter_cfg.c ****     #define CY_CFG_SECTION _Pragma("location=\".psocinit\"")
  53:Generated_Source\PSoC5/cyfitter_cfg.c ****     
  54:Generated_Source\PSoC5/cyfitter_cfg.c ****     #define CY_CFG_MEMORY_BARRIER() __DMB()
  55:Generated_Source\PSoC5/cyfitter_cfg.c ****     
  56:Generated_Source\PSoC5/cyfitter_cfg.c **** #else
  57:Generated_Source\PSoC5/cyfitter_cfg.c ****     #error Unsupported toolchain
  58:Generated_Source\PSoC5/cyfitter_cfg.c **** #endif
  59:Generated_Source\PSoC5/cyfitter_cfg.c **** 
  60:Generated_Source\PSoC5/cyfitter_cfg.c **** #ifndef CYCODE
  61:Generated_Source\PSoC5/cyfitter_cfg.c ****     #define CYCODE
  62:Generated_Source\PSoC5/cyfitter_cfg.c **** #endif
  63:Generated_Source\PSoC5/cyfitter_cfg.c **** #ifndef CYDATA
  64:Generated_Source\PSoC5/cyfitter_cfg.c ****     #define CYDATA
  65:Generated_Source\PSoC5/cyfitter_cfg.c **** #endif
  66:Generated_Source\PSoC5/cyfitter_cfg.c **** #ifndef CYFAR
  67:Generated_Source\PSoC5/cyfitter_cfg.c ****     #define CYFAR
  68:Generated_Source\PSoC5/cyfitter_cfg.c **** #endif
  69:Generated_Source\PSoC5/cyfitter_cfg.c **** #ifndef CYXDATA
  70:Generated_Source\PSoC5/cyfitter_cfg.c ****     #define CYXDATA
  71:Generated_Source\PSoC5/cyfitter_cfg.c **** #endif
  72:Generated_Source\PSoC5/cyfitter_cfg.c **** 
  73:Generated_Source\PSoC5/cyfitter_cfg.c **** 
  74:Generated_Source\PSoC5/cyfitter_cfg.c **** CY_CFG_UNUSED
  75:Generated_Source\PSoC5/cyfitter_cfg.c **** static void CYMEMZERO(void *s, size_t n);
  76:Generated_Source\PSoC5/cyfitter_cfg.c **** CY_CFG_UNUSED
  77:Generated_Source\PSoC5/cyfitter_cfg.c **** static void CYMEMZERO(void *s, size_t n)
  78:Generated_Source\PSoC5/cyfitter_cfg.c **** {
  79:Generated_Source\PSoC5/cyfitter_cfg.c **** 	(void)memset(s, 0, n);
  80:Generated_Source\PSoC5/cyfitter_cfg.c **** }
  81:Generated_Source\PSoC5/cyfitter_cfg.c **** CY_CFG_UNUSED
  82:Generated_Source\PSoC5/cyfitter_cfg.c **** static void CYCONFIGCPY(void *dest, const void *src, size_t n);
  83:Generated_Source\PSoC5/cyfitter_cfg.c **** CY_CFG_UNUSED
  84:Generated_Source\PSoC5/cyfitter_cfg.c **** static void CYCONFIGCPY(void *dest, const void *src, size_t n)
  85:Generated_Source\PSoC5/cyfitter_cfg.c **** {
  86:Generated_Source\PSoC5/cyfitter_cfg.c **** 	(void)memcpy(dest, src, n);
  87:Generated_Source\PSoC5/cyfitter_cfg.c **** }
  88:Generated_Source\PSoC5/cyfitter_cfg.c **** CY_CFG_UNUSED
ARM GAS  C:\Users\Joshua\AppData\Local\Temp\ccRw6Wyd.s 			page 3


  89:Generated_Source\PSoC5/cyfitter_cfg.c **** static void CYCONFIGCPYCODE(void *dest, const void *src, size_t n);
  90:Generated_Source\PSoC5/cyfitter_cfg.c **** CY_CFG_UNUSED
  91:Generated_Source\PSoC5/cyfitter_cfg.c **** static void CYCONFIGCPYCODE(void *dest, const void *src, size_t n)
  92:Generated_Source\PSoC5/cyfitter_cfg.c **** {
  93:Generated_Source\PSoC5/cyfitter_cfg.c **** 	(void)memcpy(dest, src, n);
  94:Generated_Source\PSoC5/cyfitter_cfg.c **** }
  95:Generated_Source\PSoC5/cyfitter_cfg.c **** 
  96:Generated_Source\PSoC5/cyfitter_cfg.c **** 
  97:Generated_Source\PSoC5/cyfitter_cfg.c **** 
  98:Generated_Source\PSoC5/cyfitter_cfg.c **** 
  99:Generated_Source\PSoC5/cyfitter_cfg.c **** /* Clock startup error codes                                                   */
 100:Generated_Source\PSoC5/cyfitter_cfg.c **** #define CYCLOCKSTART_NO_ERROR    0u
 101:Generated_Source\PSoC5/cyfitter_cfg.c **** #define CYCLOCKSTART_XTAL_ERROR  1u
 102:Generated_Source\PSoC5/cyfitter_cfg.c **** #define CYCLOCKSTART_32KHZ_ERROR 2u
 103:Generated_Source\PSoC5/cyfitter_cfg.c **** #define CYCLOCKSTART_PLL_ERROR   3u
 104:Generated_Source\PSoC5/cyfitter_cfg.c **** #define CYCLOCKSTART_FLL_ERROR   4u
 105:Generated_Source\PSoC5/cyfitter_cfg.c **** 
 106:Generated_Source\PSoC5/cyfitter_cfg.c **** 
 107:Generated_Source\PSoC5/cyfitter_cfg.c **** #ifdef CY_NEED_CYCLOCKSTARTUPERROR
 108:Generated_Source\PSoC5/cyfitter_cfg.c **** /*******************************************************************************
 109:Generated_Source\PSoC5/cyfitter_cfg.c **** * Function Name: CyClockStartupError
 110:Generated_Source\PSoC5/cyfitter_cfg.c **** ********************************************************************************
 111:Generated_Source\PSoC5/cyfitter_cfg.c **** * Summary:
 112:Generated_Source\PSoC5/cyfitter_cfg.c **** *  If an error is encountered during clock configuration (crystal startup error,
 113:Generated_Source\PSoC5/cyfitter_cfg.c **** *  PLL lock error, etc.), the system will end up here.  Unless reimplemented by
 114:Generated_Source\PSoC5/cyfitter_cfg.c **** *  the customer, this function will stop in an infinite loop.
 115:Generated_Source\PSoC5/cyfitter_cfg.c **** *
 116:Generated_Source\PSoC5/cyfitter_cfg.c **** * Parameters:
 117:Generated_Source\PSoC5/cyfitter_cfg.c **** *   void
 118:Generated_Source\PSoC5/cyfitter_cfg.c **** *
 119:Generated_Source\PSoC5/cyfitter_cfg.c **** * Return:
 120:Generated_Source\PSoC5/cyfitter_cfg.c **** *   void
 121:Generated_Source\PSoC5/cyfitter_cfg.c **** *
 122:Generated_Source\PSoC5/cyfitter_cfg.c **** *******************************************************************************/
 123:Generated_Source\PSoC5/cyfitter_cfg.c **** CY_CFG_UNUSED
 124:Generated_Source\PSoC5/cyfitter_cfg.c **** static void CyClockStartupError(uint8 errorCode);
 125:Generated_Source\PSoC5/cyfitter_cfg.c **** CY_CFG_UNUSED
 126:Generated_Source\PSoC5/cyfitter_cfg.c **** static void CyClockStartupError(uint8 errorCode)
 127:Generated_Source\PSoC5/cyfitter_cfg.c **** {
  27              		.loc 1 127 0
  28              		.cfi_startproc
  29              		@ Volatile: function does not return.
  30              		@ args = 0, pretend = 0, frame = 0
  31              		@ frame_needed = 0, uses_anonymous_args = 0
  32              		@ link register save eliminated.
  33              	.LVL0:
  34              	.L2:
  35 0000 FEE7     		b	.L2
  36              		.cfi_endproc
  37              	.LFE3:
  38              		.size	CyClockStartupError, .-CyClockStartupError
  39 0002 00BF     		.section	.text.cfg_write_bytes32,"ax",%progbits
  40              		.align	2
  41              		.thumb
  42              		.thumb_func
  43              		.type	cfg_write_bytes32, %function
  44              	cfg_write_bytes32:
ARM GAS  C:\Users\Joshua\AppData\Local\Temp\ccRw6Wyd.s 			page 4


  45              	.LFB4:
 128:Generated_Source\PSoC5/cyfitter_cfg.c ****     /* To remove the compiler warning if errorCode not used. */
 129:Generated_Source\PSoC5/cyfitter_cfg.c **** #if defined(CY_PSOC3) && (CY_PSOC3)
 130:Generated_Source\PSoC5/cyfitter_cfg.c ****     errorCode = errorCode;
 131:Generated_Source\PSoC5/cyfitter_cfg.c **** #else
 132:Generated_Source\PSoC5/cyfitter_cfg.c ****     (void)errorCode;
 133:Generated_Source\PSoC5/cyfitter_cfg.c **** #endif /* CY_PSOC3 */
 134:Generated_Source\PSoC5/cyfitter_cfg.c **** 
 135:Generated_Source\PSoC5/cyfitter_cfg.c ****     /* If we have a clock startup error (bad MHz crystal, PLL lock, etc.),  */
 136:Generated_Source\PSoC5/cyfitter_cfg.c ****     /* we will end up here to allow the customer to implement something to  */
 137:Generated_Source\PSoC5/cyfitter_cfg.c ****     /* deal with the clock condition.                                       */
 138:Generated_Source\PSoC5/cyfitter_cfg.c **** 
 139:Generated_Source\PSoC5/cyfitter_cfg.c **** #ifdef CY_CFG_CLOCK_STARTUP_ERROR_CALLBACK
 140:Generated_Source\PSoC5/cyfitter_cfg.c ****     CY_CFG_Clock_Startup_ErrorCallback();
 141:Generated_Source\PSoC5/cyfitter_cfg.c **** #else
 142:Generated_Source\PSoC5/cyfitter_cfg.c ****     /*  If not using CY_CFG_CLOCK_STARTUP_ERROR_CALLBACK, place your clock startup code here. */
 143:Generated_Source\PSoC5/cyfitter_cfg.c ****     /* `#START CyClockStartupError` */
 144:Generated_Source\PSoC5/cyfitter_cfg.c **** 
 145:Generated_Source\PSoC5/cyfitter_cfg.c **** 
 146:Generated_Source\PSoC5/cyfitter_cfg.c **** 
 147:Generated_Source\PSoC5/cyfitter_cfg.c ****     /* `#END` */
 148:Generated_Source\PSoC5/cyfitter_cfg.c **** 
 149:Generated_Source\PSoC5/cyfitter_cfg.c ****     while(1) {}
 150:Generated_Source\PSoC5/cyfitter_cfg.c **** #endif /* CY_CFG_CLOCK_STARTUP_ERROR_CALLBACK */
 151:Generated_Source\PSoC5/cyfitter_cfg.c **** }
 152:Generated_Source\PSoC5/cyfitter_cfg.c **** #endif
 153:Generated_Source\PSoC5/cyfitter_cfg.c **** 
 154:Generated_Source\PSoC5/cyfitter_cfg.c **** #define CY_CFG_BASE_ADDR_COUNT 32u
 155:Generated_Source\PSoC5/cyfitter_cfg.c **** CYPACKED typedef struct
 156:Generated_Source\PSoC5/cyfitter_cfg.c **** {
 157:Generated_Source\PSoC5/cyfitter_cfg.c **** 	uint8 offset;
 158:Generated_Source\PSoC5/cyfitter_cfg.c **** 	uint8 value;
 159:Generated_Source\PSoC5/cyfitter_cfg.c **** } CYPACKED_ATTR cy_cfg_addrvalue_t;
 160:Generated_Source\PSoC5/cyfitter_cfg.c **** 
 161:Generated_Source\PSoC5/cyfitter_cfg.c **** #define cy_cfg_addr_table ((const uint32 CYFAR *)0x48000000u)
 162:Generated_Source\PSoC5/cyfitter_cfg.c **** #define cy_cfg_data_table ((const cy_cfg_addrvalue_t CYFAR *)0x48000080u)
 163:Generated_Source\PSoC5/cyfitter_cfg.c **** 
 164:Generated_Source\PSoC5/cyfitter_cfg.c **** /* IOPINS0_0 Address: CYREG_PRT0_DM0 Size (bytes): 8 */
 165:Generated_Source\PSoC5/cyfitter_cfg.c **** #define BS_IOPINS0_0_VAL ((const uint8 CYFAR *)0x4800030Cu)
 166:Generated_Source\PSoC5/cyfitter_cfg.c **** 
 167:Generated_Source\PSoC5/cyfitter_cfg.c **** /* IOPINS0_1 Address: CYREG_PRT1_DM0 Size (bytes): 8 */
 168:Generated_Source\PSoC5/cyfitter_cfg.c **** #define BS_IOPINS0_1_VAL ((const uint8 CYFAR *)0x48000314u)
 169:Generated_Source\PSoC5/cyfitter_cfg.c **** 
 170:Generated_Source\PSoC5/cyfitter_cfg.c **** /* IOPINS0_2 Address: CYREG_PRT2_DM0 Size (bytes): 8 */
 171:Generated_Source\PSoC5/cyfitter_cfg.c **** #define BS_IOPINS0_2_VAL ((const uint8 CYFAR *)0x4800031Cu)
 172:Generated_Source\PSoC5/cyfitter_cfg.c **** 
 173:Generated_Source\PSoC5/cyfitter_cfg.c **** /* IOPINS0_3 Address: CYREG_PRT3_DM0 Size (bytes): 8 */
 174:Generated_Source\PSoC5/cyfitter_cfg.c **** #define BS_IOPINS0_3_VAL ((const uint8 CYFAR *)0x48000324u)
 175:Generated_Source\PSoC5/cyfitter_cfg.c **** 
 176:Generated_Source\PSoC5/cyfitter_cfg.c **** /* CYDEV_CLKDIST_ACFG0_CFG0 Address: CYREG_CLKDIST_ACFG0_CFG0 Size (bytes): 4 */
 177:Generated_Source\PSoC5/cyfitter_cfg.c **** #define BS_CYDEV_CLKDIST_ACFG0_CFG0_VAL ((const uint8 CYFAR *)0x4800032Cu)
 178:Generated_Source\PSoC5/cyfitter_cfg.c **** 
 179:Generated_Source\PSoC5/cyfitter_cfg.c **** 
 180:Generated_Source\PSoC5/cyfitter_cfg.c **** /*******************************************************************************
 181:Generated_Source\PSoC5/cyfitter_cfg.c **** * Function Name: cfg_write_bytes32
 182:Generated_Source\PSoC5/cyfitter_cfg.c **** ********************************************************************************
 183:Generated_Source\PSoC5/cyfitter_cfg.c **** * Summary:
ARM GAS  C:\Users\Joshua\AppData\Local\Temp\ccRw6Wyd.s 			page 5


 184:Generated_Source\PSoC5/cyfitter_cfg.c **** *  This function is used for setting up the chip configuration areas that
 185:Generated_Source\PSoC5/cyfitter_cfg.c **** *  contain relatively sparse data.
 186:Generated_Source\PSoC5/cyfitter_cfg.c **** *
 187:Generated_Source\PSoC5/cyfitter_cfg.c **** * Parameters:
 188:Generated_Source\PSoC5/cyfitter_cfg.c **** *   void
 189:Generated_Source\PSoC5/cyfitter_cfg.c **** *
 190:Generated_Source\PSoC5/cyfitter_cfg.c **** * Return:
 191:Generated_Source\PSoC5/cyfitter_cfg.c **** *   void
 192:Generated_Source\PSoC5/cyfitter_cfg.c **** *
 193:Generated_Source\PSoC5/cyfitter_cfg.c **** *******************************************************************************/
 194:Generated_Source\PSoC5/cyfitter_cfg.c **** static void cfg_write_bytes32(const uint32 addr_table[], const cy_cfg_addrvalue_t data_table[]);
 195:Generated_Source\PSoC5/cyfitter_cfg.c **** static void cfg_write_bytes32(const uint32 addr_table[], const cy_cfg_addrvalue_t data_table[])
 196:Generated_Source\PSoC5/cyfitter_cfg.c **** {
  46              		.loc 1 196 0
  47              		.cfi_startproc
  48              		@ args = 0, pretend = 0, frame = 0
  49              		@ frame_needed = 0, uses_anonymous_args = 0
  50              		@ link register save eliminated.
  51              	.LVL1:
  52              		.loc 1 196 0
  53 0000 F0B4     		push	{r4, r5, r6, r7}
  54              		.cfi_def_cfa_offset 16
  55              		.cfi_offset 4, -16
  56              		.cfi_offset 5, -12
  57              		.cfi_offset 6, -8
  58              		.cfi_offset 7, -4
  59              	.LVL2:
 197:Generated_Source\PSoC5/cyfitter_cfg.c **** 	/* For 32-bit little-endian architectures */
 198:Generated_Source\PSoC5/cyfitter_cfg.c **** 	uint32 i, j = 0u;
  60              		.loc 1 198 0
  61 0002 0022     		movs	r2, #0
 199:Generated_Source\PSoC5/cyfitter_cfg.c **** 	for (i = 0u; i < CY_CFG_BASE_ADDR_COUNT; i++)
  62              		.loc 1 199 0
  63 0004 1746     		mov	r7, r2
  64 0006 11E0     		b	.L4
  65              	.LVL3:
  66              	.L7:
  67              	.LBB2:
 200:Generated_Source\PSoC5/cyfitter_cfg.c **** 	{
 201:Generated_Source\PSoC5/cyfitter_cfg.c **** 		uint32 baseAddr = addr_table[i];
  68              		.loc 1 201 0
  69 0008 50F82760 		ldr	r6, [r0, r7, lsl #2]
  70              	.LVL4:
 202:Generated_Source\PSoC5/cyfitter_cfg.c **** 		uint8 count = (uint8)baseAddr;
  71              		.loc 1 202 0
  72 000c F3B2     		uxtb	r3, r6
  73              	.LVL5:
 203:Generated_Source\PSoC5/cyfitter_cfg.c **** 		baseAddr &= 0xFFFFFF00u;
  74              		.loc 1 203 0
  75 000e 26F0FF06 		bic	r6, r6, #255
  76              	.LVL6:
 204:Generated_Source\PSoC5/cyfitter_cfg.c **** 		while (count != 0u)
  77              		.loc 1 204 0
  78 0012 08E0     		b	.L5
  79              	.L6:
 205:Generated_Source\PSoC5/cyfitter_cfg.c **** 		{
 206:Generated_Source\PSoC5/cyfitter_cfg.c **** 			CY_SET_REG8((void *)(baseAddr + data_table[j].offset), data_table[j].value);
ARM GAS  C:\Users\Joshua\AppData\Local\Temp\ccRw6Wyd.s 			page 6


  80              		.loc 1 206 0
  81 0014 01EB4205 		add	r5, r1, r2, lsl #1
  82 0018 11F81240 		ldrb	r4, [r1, r2, lsl #1]	@ zero_extendqisi2
  83 001c 6D78     		ldrb	r5, [r5, #1]	@ zero_extendqisi2
  84 001e A555     		strb	r5, [r4, r6]
 207:Generated_Source\PSoC5/cyfitter_cfg.c **** 			j++;
  85              		.loc 1 207 0
  86 0020 0132     		adds	r2, r2, #1
  87              	.LVL7:
 208:Generated_Source\PSoC5/cyfitter_cfg.c **** 			count--;
  88              		.loc 1 208 0
  89 0022 013B     		subs	r3, r3, #1
  90              	.LVL8:
  91 0024 DBB2     		uxtb	r3, r3
  92              	.LVL9:
  93              	.L5:
 204:Generated_Source\PSoC5/cyfitter_cfg.c **** 		{
  94              		.loc 1 204 0
  95 0026 002B     		cmp	r3, #0
  96 0028 F4D1     		bne	.L6
  97              	.LBE2:
 199:Generated_Source\PSoC5/cyfitter_cfg.c **** 	{
  98              		.loc 1 199 0 discriminator 2
  99 002a 0137     		adds	r7, r7, #1
 100              	.LVL10:
 101              	.L4:
 199:Generated_Source\PSoC5/cyfitter_cfg.c **** 	{
 102              		.loc 1 199 0 is_stmt 0 discriminator 1
 103 002c 1F2F     		cmp	r7, #31
 104 002e EBD9     		bls	.L7
 209:Generated_Source\PSoC5/cyfitter_cfg.c **** 		}
 210:Generated_Source\PSoC5/cyfitter_cfg.c **** 	}
 211:Generated_Source\PSoC5/cyfitter_cfg.c **** }
 105              		.loc 1 211 0 is_stmt 1
 106 0030 F0BC     		pop	{r4, r5, r6, r7}
 107              		.cfi_restore 7
 108              		.cfi_restore 6
 109              		.cfi_restore 5
 110              		.cfi_restore 4
 111              		.cfi_def_cfa_offset 0
 112              	.LVL11:
 113 0032 7047     		bx	lr
 114              		.cfi_endproc
 115              	.LFE4:
 116              		.size	cfg_write_bytes32, .-cfg_write_bytes32
 117              		.section	.text.AnalogSetDefault,"ax",%progbits
 118              		.align	2
 119              		.thumb
 120              		.thumb_func
 121              		.type	AnalogSetDefault, %function
 122              	AnalogSetDefault:
 123              	.LFB6:
 212:Generated_Source\PSoC5/cyfitter_cfg.c **** 
 213:Generated_Source\PSoC5/cyfitter_cfg.c **** /*******************************************************************************
 214:Generated_Source\PSoC5/cyfitter_cfg.c **** * Function Name: ClockSetup
 215:Generated_Source\PSoC5/cyfitter_cfg.c **** ********************************************************************************
 216:Generated_Source\PSoC5/cyfitter_cfg.c **** *
ARM GAS  C:\Users\Joshua\AppData\Local\Temp\ccRw6Wyd.s 			page 7


 217:Generated_Source\PSoC5/cyfitter_cfg.c **** * Summary:
 218:Generated_Source\PSoC5/cyfitter_cfg.c **** *  Performs the initialization of all of the clocks in the device based on the
 219:Generated_Source\PSoC5/cyfitter_cfg.c **** *  settings in the Clock tab of the DWR.  This includes enabling the requested
 220:Generated_Source\PSoC5/cyfitter_cfg.c **** *  clocks and setting the necessary dividers to produce the desired frequency. 
 221:Generated_Source\PSoC5/cyfitter_cfg.c **** *
 222:Generated_Source\PSoC5/cyfitter_cfg.c **** * Parameters:
 223:Generated_Source\PSoC5/cyfitter_cfg.c **** *  void
 224:Generated_Source\PSoC5/cyfitter_cfg.c **** *
 225:Generated_Source\PSoC5/cyfitter_cfg.c **** * Return:
 226:Generated_Source\PSoC5/cyfitter_cfg.c **** *  void
 227:Generated_Source\PSoC5/cyfitter_cfg.c **** *
 228:Generated_Source\PSoC5/cyfitter_cfg.c **** *******************************************************************************/
 229:Generated_Source\PSoC5/cyfitter_cfg.c **** static void ClockSetup(void);
 230:Generated_Source\PSoC5/cyfitter_cfg.c **** static void ClockSetup(void)
 231:Generated_Source\PSoC5/cyfitter_cfg.c **** {
 232:Generated_Source\PSoC5/cyfitter_cfg.c **** 	uint32 timeout;
 233:Generated_Source\PSoC5/cyfitter_cfg.c **** 	uint8 pllLock;
 234:Generated_Source\PSoC5/cyfitter_cfg.c **** 
 235:Generated_Source\PSoC5/cyfitter_cfg.c **** 
 236:Generated_Source\PSoC5/cyfitter_cfg.c **** 	/* Configure Digital Clocks based on settings from Clock DWR */
 237:Generated_Source\PSoC5/cyfitter_cfg.c **** 	CY_SET_XTND_REG16((void CYFAR *)(CYREG_CLKDIST_DCFG0_CFG0), 0x0000u);
 238:Generated_Source\PSoC5/cyfitter_cfg.c **** 	CY_SET_XTND_REG8((void CYFAR *)(CYREG_CLKDIST_DCFG0_CFG0 + 0x2u), 0x50u);
 239:Generated_Source\PSoC5/cyfitter_cfg.c **** 	CY_SET_XTND_REG16((void CYFAR *)(CYREG_CLKDIST_DCFG1_CFG0), 0x0002u);
 240:Generated_Source\PSoC5/cyfitter_cfg.c **** 	CY_SET_XTND_REG8((void CYFAR *)(CYREG_CLKDIST_DCFG1_CFG0 + 0x2u), 0x18u);
 241:Generated_Source\PSoC5/cyfitter_cfg.c **** 	CY_SET_XTND_REG16((void CYFAR *)(CYREG_CLKDIST_DCFG2_CFG0), 0x008Fu);
 242:Generated_Source\PSoC5/cyfitter_cfg.c **** 	CY_SET_XTND_REG8((void CYFAR *)(CYREG_CLKDIST_DCFG2_CFG0 + 0x2u), 0x18u);
 243:Generated_Source\PSoC5/cyfitter_cfg.c **** 	CY_SET_XTND_REG16((void CYFAR *)(CYREG_CLKDIST_DCFG3_CFG0), 0x3725u);
 244:Generated_Source\PSoC5/cyfitter_cfg.c **** 	CY_SET_XTND_REG8((void CYFAR *)(CYREG_CLKDIST_DCFG3_CFG0 + 0x2u), 0x18u);
 245:Generated_Source\PSoC5/cyfitter_cfg.c **** 	CY_SET_XTND_REG16((void CYFAR *)(CYREG_CLKDIST_DCFG4_CFG0), 0x0063u);
 246:Generated_Source\PSoC5/cyfitter_cfg.c **** 	CY_SET_XTND_REG8((void CYFAR *)(CYREG_CLKDIST_DCFG4_CFG0 + 0x2u), 0x1Bu);
 247:Generated_Source\PSoC5/cyfitter_cfg.c **** 
 248:Generated_Source\PSoC5/cyfitter_cfg.c **** 	/* Configure Analog Clocks based on settings from Clock DWR */
 249:Generated_Source\PSoC5/cyfitter_cfg.c **** 	CYCONFIGCPY((void CYFAR *)(CYREG_CLKDIST_ACFG0_CFG0), (const void CYFAR *)(BS_CYDEV_CLKDIST_ACFG0_
 250:Generated_Source\PSoC5/cyfitter_cfg.c **** 
 251:Generated_Source\PSoC5/cyfitter_cfg.c **** 	/* Configure ILO based on settings from Clock DWR */
 252:Generated_Source\PSoC5/cyfitter_cfg.c **** 	CY_SET_XTND_REG8((void CYFAR *)(CYREG_SLOWCLK_ILO_CR0), 0x02u);
 253:Generated_Source\PSoC5/cyfitter_cfg.c **** 	CY_SET_XTND_REG8((void CYFAR *)(CYREG_CLKDIST_CR), 0x08u);
 254:Generated_Source\PSoC5/cyfitter_cfg.c **** 
 255:Generated_Source\PSoC5/cyfitter_cfg.c **** 	/* Configure IMO based on settings from Clock DWR */
 256:Generated_Source\PSoC5/cyfitter_cfg.c **** 	CY_SET_XTND_REG8((void CYFAR *)(CYREG_FASTCLK_IMO_CR), 0x03u);
 257:Generated_Source\PSoC5/cyfitter_cfg.c **** 	CY_SET_XTND_REG8((void CYFAR *)(CYREG_IMO_TR1), (CY_GET_XTND_REG8((void CYFAR *)CYREG_FLSHID_CUST_
 258:Generated_Source\PSoC5/cyfitter_cfg.c **** 
 259:Generated_Source\PSoC5/cyfitter_cfg.c **** 	/* Configure PLL based on settings from Clock DWR */
 260:Generated_Source\PSoC5/cyfitter_cfg.c **** 	CY_SET_XTND_REG16((void CYFAR *)(CYREG_FASTCLK_PLL_P), 0x0018u);
 261:Generated_Source\PSoC5/cyfitter_cfg.c **** 	CY_SET_XTND_REG16((void CYFAR *)(CYREG_FASTCLK_PLL_CFG0), 0x2251u);
 262:Generated_Source\PSoC5/cyfitter_cfg.c **** 	/* Wait up to 250us for the PLL to lock */
 263:Generated_Source\PSoC5/cyfitter_cfg.c **** 	pllLock = 0u;
 264:Generated_Source\PSoC5/cyfitter_cfg.c **** 	for (timeout = 250u / 10u; (timeout > 0u) && (pllLock != 0x03u); timeout--)
 265:Generated_Source\PSoC5/cyfitter_cfg.c **** 	{ 
 266:Generated_Source\PSoC5/cyfitter_cfg.c **** 		pllLock = 0x03u & ((uint8)((uint8)pllLock << 1) | ((CY_GET_XTND_REG8((void CYFAR *)CYREG_FASTCLK_
 267:Generated_Source\PSoC5/cyfitter_cfg.c **** 		CyDelayCycles(10u * 48u); /* Delay 10us based on 48MHz clock */
 268:Generated_Source\PSoC5/cyfitter_cfg.c **** 	}
 269:Generated_Source\PSoC5/cyfitter_cfg.c **** 	/* If we ran out of time the PLL didn't lock so go to the error function */
 270:Generated_Source\PSoC5/cyfitter_cfg.c **** 	if (timeout == 0u)
 271:Generated_Source\PSoC5/cyfitter_cfg.c **** 	{
 272:Generated_Source\PSoC5/cyfitter_cfg.c **** 		CyClockStartupError(CYCLOCKSTART_PLL_ERROR);
 273:Generated_Source\PSoC5/cyfitter_cfg.c **** 	}
ARM GAS  C:\Users\Joshua\AppData\Local\Temp\ccRw6Wyd.s 			page 8


 274:Generated_Source\PSoC5/cyfitter_cfg.c **** 
 275:Generated_Source\PSoC5/cyfitter_cfg.c **** 	/* Configure Bus/Master Clock based on settings from Clock DWR */
 276:Generated_Source\PSoC5/cyfitter_cfg.c **** 	CY_SET_XTND_REG16((void CYFAR *)(CYREG_CLKDIST_MSTR0), 0x0100u);
 277:Generated_Source\PSoC5/cyfitter_cfg.c **** 	CY_SET_XTND_REG8((void CYFAR *)(CYREG_CLKDIST_MSTR0), 0x07u);
 278:Generated_Source\PSoC5/cyfitter_cfg.c **** 	CY_SET_XTND_REG8((void CYFAR *)(CYREG_CLKDIST_BCFG0), 0x00u);
 279:Generated_Source\PSoC5/cyfitter_cfg.c **** 	CY_SET_XTND_REG8((void CYFAR *)(CYREG_CLKDIST_BCFG2), 0x48u);
 280:Generated_Source\PSoC5/cyfitter_cfg.c **** 	CY_SET_XTND_REG8((void CYFAR *)(CYREG_CLKDIST_MSTR0), 0x00u);
 281:Generated_Source\PSoC5/cyfitter_cfg.c **** 	CY_SET_XTND_REG8((void CYFAR *)(CYREG_CLKDIST_LD), 0x02u);
 282:Generated_Source\PSoC5/cyfitter_cfg.c **** 	CY_SET_XTND_REG8((void CYFAR *)(CYREG_CLKDIST_DLY1), 0x04u);
 283:Generated_Source\PSoC5/cyfitter_cfg.c **** 
 284:Generated_Source\PSoC5/cyfitter_cfg.c **** 	CY_SET_XTND_REG8((void CYFAR *)(CYREG_PM_ACT_CFG2), ((CY_GET_XTND_REG8((void CYFAR *)CYREG_PM_ACT_
 285:Generated_Source\PSoC5/cyfitter_cfg.c **** 	CY_SET_XTND_REG8((void CYFAR *)(CYREG_PM_ACT_CFG1), ((CY_GET_XTND_REG8((void CYFAR *)CYREG_PM_ACT_
 286:Generated_Source\PSoC5/cyfitter_cfg.c **** 	CY_SET_XTND_REG8((void CYFAR *)(CYREG_PM_ACT_CFG0), ((CY_GET_XTND_REG8((void CYFAR *)CYREG_PM_ACT_
 287:Generated_Source\PSoC5/cyfitter_cfg.c **** }
 288:Generated_Source\PSoC5/cyfitter_cfg.c **** 
 289:Generated_Source\PSoC5/cyfitter_cfg.c **** 
 290:Generated_Source\PSoC5/cyfitter_cfg.c **** /* Analog API Functions */
 291:Generated_Source\PSoC5/cyfitter_cfg.c **** 
 292:Generated_Source\PSoC5/cyfitter_cfg.c **** 
 293:Generated_Source\PSoC5/cyfitter_cfg.c **** /*******************************************************************************
 294:Generated_Source\PSoC5/cyfitter_cfg.c **** * Function Name: AnalogSetDefault
 295:Generated_Source\PSoC5/cyfitter_cfg.c **** ********************************************************************************
 296:Generated_Source\PSoC5/cyfitter_cfg.c **** *
 297:Generated_Source\PSoC5/cyfitter_cfg.c **** * Summary:
 298:Generated_Source\PSoC5/cyfitter_cfg.c **** *  Sets up the analog portions of the chip to default values based on chip
 299:Generated_Source\PSoC5/cyfitter_cfg.c **** *  configuration options from the project.
 300:Generated_Source\PSoC5/cyfitter_cfg.c **** *
 301:Generated_Source\PSoC5/cyfitter_cfg.c **** * Parameters:
 302:Generated_Source\PSoC5/cyfitter_cfg.c **** *  void
 303:Generated_Source\PSoC5/cyfitter_cfg.c **** *
 304:Generated_Source\PSoC5/cyfitter_cfg.c **** * Return:
 305:Generated_Source\PSoC5/cyfitter_cfg.c **** *  void
 306:Generated_Source\PSoC5/cyfitter_cfg.c **** *
 307:Generated_Source\PSoC5/cyfitter_cfg.c **** *******************************************************************************/
 308:Generated_Source\PSoC5/cyfitter_cfg.c **** static void AnalogSetDefault(void);
 309:Generated_Source\PSoC5/cyfitter_cfg.c **** static void AnalogSetDefault(void)
 310:Generated_Source\PSoC5/cyfitter_cfg.c **** {
 124              		.loc 1 310 0
 125              		.cfi_startproc
 126              		@ args = 0, pretend = 0, frame = 0
 127              		@ frame_needed = 0, uses_anonymous_args = 0
 128              		@ link register save eliminated.
 311:Generated_Source\PSoC5/cyfitter_cfg.c **** 	uint8 bg_xover_inl_trim = CY_GET_XTND_REG8((void CYFAR *)(CYREG_FLSHID_MFG_CFG_BG_XOVER_INL_TRIM +
 129              		.loc 1 311 0
 130 0000 1A4B     		ldr	r3, .L10
 131 0002 1B78     		ldrb	r3, [r3]	@ zero_extendqisi2
 132 0004 DBB2     		uxtb	r3, r3
 133              	.LVL12:
 312:Generated_Source\PSoC5/cyfitter_cfg.c **** 	CY_SET_XTND_REG8((void CYFAR *)(CYREG_BG_DFT0), (bg_xover_inl_trim & 0x07u));
 134              		.loc 1 312 0
 135 0006 03F00701 		and	r1, r3, #7
 136 000a 194A     		ldr	r2, .L10+4
 137 000c 1170     		strb	r1, [r2]
 313:Generated_Source\PSoC5/cyfitter_cfg.c **** 	CY_SET_XTND_REG8((void CYFAR *)(CYREG_BG_DFT1), ((bg_xover_inl_trim >> 4) & 0x0Fu));
 138              		.loc 1 313 0
 139 000e 1B09     		lsrs	r3, r3, #4
 140              	.LVL13:
ARM GAS  C:\Users\Joshua\AppData\Local\Temp\ccRw6Wyd.s 			page 9


 141 0010 0132     		adds	r2, r2, #1
 142 0012 1370     		strb	r3, [r2]
 314:Generated_Source\PSoC5/cyfitter_cfg.c **** 	CY_SET_XTND_REG8((void CYFAR *)CYREG_PRT1_AMUX, 0x80u);
 143              		.loc 1 314 0
 144 0014 8022     		movs	r2, #128
 145 0016 174B     		ldr	r3, .L10+8
 146 0018 1A70     		strb	r2, [r3]
 315:Generated_Source\PSoC5/cyfitter_cfg.c **** 	CY_SET_XTND_REG8((void CYFAR *)CYREG_PRT2_AG, 0x28u);
 147              		.loc 1 315 0
 148 001a 2822     		movs	r2, #40
 149 001c 1133     		adds	r3, r3, #17
 150 001e 1A70     		strb	r2, [r3]
 316:Generated_Source\PSoC5/cyfitter_cfg.c **** 	CY_SET_XTND_REG8((void CYFAR *)CYREG_PRT3_AG, 0x40u);
 151              		.loc 1 316 0
 152 0020 4022     		movs	r2, #64
 153 0022 1033     		adds	r3, r3, #16
 154 0024 1A70     		strb	r2, [r3]
 317:Generated_Source\PSoC5/cyfitter_cfg.c **** 	CY_SET_XTND_REG8((void CYFAR *)CYREG_SC2_SW0, 0x42u);
 155              		.loc 1 317 0
 156 0026 4221     		movs	r1, #66
 157 0028 03F6E303 		addw	r3, r3, #2275
 158 002c 1970     		strb	r1, [r3]
 318:Generated_Source\PSoC5/cyfitter_cfg.c **** 	CY_SET_XTND_REG8((void CYFAR *)CYREG_DAC0_SW2, 0x02u);
 159              		.loc 1 318 0
 160 002e 0221     		movs	r1, #2
 161 0030 6233     		adds	r3, r3, #98
 162 0032 1970     		strb	r1, [r3]
 319:Generated_Source\PSoC5/cyfitter_cfg.c **** 	CY_SET_XTND_REG8((void CYFAR *)CYREG_DAC1_SW2, 0x08u);
 163              		.loc 1 319 0
 164 0034 0821     		movs	r1, #8
 165 0036 0833     		adds	r3, r3, #8
 166 0038 1970     		strb	r1, [r3]
 320:Generated_Source\PSoC5/cyfitter_cfg.c **** 	CY_SET_XTND_REG8((void CYFAR *)CYREG_DAC2_SW3, 0x01u);
 167              		.loc 1 320 0
 168 003a 0123     		movs	r3, #1
 169 003c 0E49     		ldr	r1, .L10+12
 170 003e 0B70     		strb	r3, [r1]
 321:Generated_Source\PSoC5/cyfitter_cfg.c **** 	CY_SET_XTND_REG8((void CYFAR *)CYREG_DAC3_SW0, 0x10u);
 171              		.loc 1 321 0
 172 0040 1020     		movs	r0, #16
 173 0042 0531     		adds	r1, r1, #5
 174 0044 0870     		strb	r0, [r1]
 322:Generated_Source\PSoC5/cyfitter_cfg.c **** 	CY_SET_XTND_REG8((void CYFAR *)CYREG_CMP0_SW0, 0x24u);
 175              		.loc 1 322 0
 176 0046 2420     		movs	r0, #36
 177 0048 2831     		adds	r1, r1, #40
 178 004a 0870     		strb	r0, [r1]
 323:Generated_Source\PSoC5/cyfitter_cfg.c **** 	CY_SET_XTND_REG16((void CYFAR *)CYREG_OPAMP1_MX, 0x0101u);
 179              		.loc 1 323 0
 180 004c 40F20110 		movw	r0, #257
 181 0050 8231     		adds	r1, r1, #130
 182 0052 0880     		strh	r0, [r1]	@ movhi
 324:Generated_Source\PSoC5/cyfitter_cfg.c **** 	CY_SET_XTND_REG32((void CYFAR *)CYREG_OPAMP2_MX, 0x01080106u);
 183              		.loc 1 324 0
 184 0054 0948     		ldr	r0, .L10+16
 185 0056 0231     		adds	r1, r1, #2
 186 0058 0860     		str	r0, [r1]
ARM GAS  C:\Users\Joshua\AppData\Local\Temp\ccRw6Wyd.s 			page 10


 325:Generated_Source\PSoC5/cyfitter_cfg.c **** 	CY_SET_XTND_REG8((void CYFAR *)CYREG_BUS_SW0, 0x40u);
 187              		.loc 1 325 0
 188 005a 1431     		adds	r1, r1, #20
 189 005c 0A70     		strb	r2, [r1]
 326:Generated_Source\PSoC5/cyfitter_cfg.c **** 	CY_SET_XTND_REG8((void CYFAR *)CYREG_BUS_SW3, 0x01u);
 190              		.loc 1 326 0
 191 005e 084A     		ldr	r2, .L10+20
 192 0060 1370     		strb	r3, [r2]
 327:Generated_Source\PSoC5/cyfitter_cfg.c **** 	CY_SET_XTND_REG8((void CYFAR *)CYREG_PUMP_CR0, 0x44u);
 193              		.loc 1 327 0
 194 0062 4422     		movs	r2, #68
 195 0064 074B     		ldr	r3, .L10+24
 196 0066 1A70     		strb	r2, [r3]
 197 0068 7047     		bx	lr
 198              	.L11:
 199 006a 00BF     		.align	2
 200              	.L10:
 201 006c CF010049 		.word	1224737231
 202 0070 6E580040 		.word	1073764462
 203 0074 1C510040 		.word	1073762588
 204 0078 935A0040 		.word	1073765011
 205 007c 06010801 		.word	17301766
 206 0080 5B5B0040 		.word	1073765211
 207 0084 76580040 		.word	1073764470
 208              		.cfi_endproc
 209              	.LFE6:
 210              		.size	AnalogSetDefault, .-AnalogSetDefault
 211              		.section	.text.CYMEMZERO,"ax",%progbits
 212              		.align	2
 213              		.thumb
 214              		.thumb_func
 215              		.type	CYMEMZERO, %function
 216              	CYMEMZERO:
 217              	.LFB0:
  78:Generated_Source\PSoC5/cyfitter_cfg.c **** 	(void)memset(s, 0, n);
 218              		.loc 1 78 0
 219              		.cfi_startproc
 220              		@ args = 0, pretend = 0, frame = 0
 221              		@ frame_needed = 0, uses_anonymous_args = 0
 222              	.LVL14:
 223 0000 08B5     		push	{r3, lr}
 224              		.cfi_def_cfa_offset 8
 225              		.cfi_offset 3, -8
 226              		.cfi_offset 14, -4
  79:Generated_Source\PSoC5/cyfitter_cfg.c **** }
 227              		.loc 1 79 0
 228 0002 0A46     		mov	r2, r1
 229 0004 0021     		movs	r1, #0
 230              	.LVL15:
 231 0006 FFF7FEFF 		bl	memset
 232              	.LVL16:
 233 000a 08BD     		pop	{r3, pc}
 234              		.cfi_endproc
 235              	.LFE0:
 236              		.size	CYMEMZERO, .-CYMEMZERO
 237              		.section	.text.CYCONFIGCPY,"ax",%progbits
 238              		.align	2
ARM GAS  C:\Users\Joshua\AppData\Local\Temp\ccRw6Wyd.s 			page 11


 239              		.thumb
 240              		.thumb_func
 241              		.type	CYCONFIGCPY, %function
 242              	CYCONFIGCPY:
 243              	.LFB1:
  85:Generated_Source\PSoC5/cyfitter_cfg.c **** 	(void)memcpy(dest, src, n);
 244              		.loc 1 85 0
 245              		.cfi_startproc
 246              		@ args = 0, pretend = 0, frame = 0
 247              		@ frame_needed = 0, uses_anonymous_args = 0
 248              	.LVL17:
 249 0000 08B5     		push	{r3, lr}
 250              		.cfi_def_cfa_offset 8
 251              		.cfi_offset 3, -8
 252              		.cfi_offset 14, -4
  86:Generated_Source\PSoC5/cyfitter_cfg.c **** }
 253              		.loc 1 86 0
 254 0002 FFF7FEFF 		bl	memcpy
 255              	.LVL18:
 256 0006 08BD     		pop	{r3, pc}
 257              		.cfi_endproc
 258              	.LFE1:
 259              		.size	CYCONFIGCPY, .-CYCONFIGCPY
 260              		.section	.text.ClockSetup,"ax",%progbits
 261              		.align	2
 262              		.thumb
 263              		.thumb_func
 264              		.type	ClockSetup, %function
 265              	ClockSetup:
 266              	.LFB5:
 231:Generated_Source\PSoC5/cyfitter_cfg.c **** 	uint32 timeout;
 267              		.loc 1 231 0
 268              		.cfi_startproc
 269              		@ args = 0, pretend = 0, frame = 0
 270              		@ frame_needed = 0, uses_anonymous_args = 0
 271 0000 70B5     		push	{r4, r5, r6, lr}
 272              		.cfi_def_cfa_offset 16
 273              		.cfi_offset 4, -16
 274              		.cfi_offset 5, -12
 275              		.cfi_offset 6, -8
 276              		.cfi_offset 14, -4
 237:Generated_Source\PSoC5/cyfitter_cfg.c **** 	CY_SET_XTND_REG8((void CYFAR *)(CYREG_CLKDIST_DCFG0_CFG0 + 0x2u), 0x50u);
 277              		.loc 1 237 0
 278 0002 0024     		movs	r4, #0
 279 0004 374B     		ldr	r3, .L22
 280 0006 1C80     		strh	r4, [r3]	@ movhi
 238:Generated_Source\PSoC5/cyfitter_cfg.c **** 	CY_SET_XTND_REG16((void CYFAR *)(CYREG_CLKDIST_DCFG1_CFG0), 0x0002u);
 281              		.loc 1 238 0
 282 0008 5022     		movs	r2, #80
 283 000a 0233     		adds	r3, r3, #2
 284 000c 1A70     		strb	r2, [r3]
 239:Generated_Source\PSoC5/cyfitter_cfg.c **** 	CY_SET_XTND_REG8((void CYFAR *)(CYREG_CLKDIST_DCFG1_CFG0 + 0x2u), 0x18u);
 285              		.loc 1 239 0
 286 000e 0226     		movs	r6, #2
 287 0010 0233     		adds	r3, r3, #2
 288 0012 1E80     		strh	r6, [r3]	@ movhi
 240:Generated_Source\PSoC5/cyfitter_cfg.c **** 	CY_SET_XTND_REG16((void CYFAR *)(CYREG_CLKDIST_DCFG2_CFG0), 0x008Fu);
ARM GAS  C:\Users\Joshua\AppData\Local\Temp\ccRw6Wyd.s 			page 12


 289              		.loc 1 240 0
 290 0014 1825     		movs	r5, #24
 291 0016 0233     		adds	r3, r3, #2
 292 0018 1D70     		strb	r5, [r3]
 241:Generated_Source\PSoC5/cyfitter_cfg.c **** 	CY_SET_XTND_REG8((void CYFAR *)(CYREG_CLKDIST_DCFG2_CFG0 + 0x2u), 0x18u);
 293              		.loc 1 241 0
 294 001a 8F22     		movs	r2, #143
 295 001c 0233     		adds	r3, r3, #2
 296 001e 1A80     		strh	r2, [r3]	@ movhi
 242:Generated_Source\PSoC5/cyfitter_cfg.c **** 	CY_SET_XTND_REG16((void CYFAR *)(CYREG_CLKDIST_DCFG3_CFG0), 0x3725u);
 297              		.loc 1 242 0
 298 0020 0233     		adds	r3, r3, #2
 299 0022 1D70     		strb	r5, [r3]
 243:Generated_Source\PSoC5/cyfitter_cfg.c **** 	CY_SET_XTND_REG8((void CYFAR *)(CYREG_CLKDIST_DCFG3_CFG0 + 0x2u), 0x18u);
 300              		.loc 1 243 0
 301 0024 43F22572 		movw	r2, #14117
 302 0028 0233     		adds	r3, r3, #2
 303 002a 1A80     		strh	r2, [r3]	@ movhi
 244:Generated_Source\PSoC5/cyfitter_cfg.c **** 	CY_SET_XTND_REG16((void CYFAR *)(CYREG_CLKDIST_DCFG4_CFG0), 0x0063u);
 304              		.loc 1 244 0
 305 002c 0233     		adds	r3, r3, #2
 306 002e 1D70     		strb	r5, [r3]
 245:Generated_Source\PSoC5/cyfitter_cfg.c **** 	CY_SET_XTND_REG8((void CYFAR *)(CYREG_CLKDIST_DCFG4_CFG0 + 0x2u), 0x1Bu);
 307              		.loc 1 245 0
 308 0030 6322     		movs	r2, #99
 309 0032 0233     		adds	r3, r3, #2
 310 0034 1A80     		strh	r2, [r3]	@ movhi
 246:Generated_Source\PSoC5/cyfitter_cfg.c **** 
 311              		.loc 1 246 0
 312 0036 1B22     		movs	r2, #27
 313 0038 0233     		adds	r3, r3, #2
 314 003a 1A70     		strb	r2, [r3]
 249:Generated_Source\PSoC5/cyfitter_cfg.c **** 
 315              		.loc 1 249 0
 316 003c 0422     		movs	r2, #4
 317 003e 2A49     		ldr	r1, .L22+4
 318 0040 2A48     		ldr	r0, .L22+8
 319 0042 FFF7FEFF 		bl	CYCONFIGCPY
 320              	.LVL19:
 252:Generated_Source\PSoC5/cyfitter_cfg.c **** 	CY_SET_XTND_REG8((void CYFAR *)(CYREG_CLKDIST_CR), 0x08u);
 321              		.loc 1 252 0
 322 0046 2A4B     		ldr	r3, .L22+12
 323 0048 1E70     		strb	r6, [r3]
 253:Generated_Source\PSoC5/cyfitter_cfg.c **** 
 324              		.loc 1 253 0
 325 004a 0822     		movs	r2, #8
 326 004c 4FF04023 		mov	r3, #1073758208
 327 0050 1A70     		strb	r2, [r3]
 256:Generated_Source\PSoC5/cyfitter_cfg.c **** 	CY_SET_XTND_REG8((void CYFAR *)(CYREG_IMO_TR1), (CY_GET_XTND_REG8((void CYFAR *)CYREG_FLSHID_CUST_
 328              		.loc 1 256 0
 329 0052 0322     		movs	r2, #3
 330 0054 03F50073 		add	r3, r3, #512
 331 0058 1A70     		strb	r2, [r3]
 257:Generated_Source\PSoC5/cyfitter_cfg.c **** 
 332              		.loc 1 257 0
 333 005a 264B     		ldr	r3, .L22+16
 334 005c 1B78     		ldrb	r3, [r3]	@ zero_extendqisi2
ARM GAS  C:\Users\Joshua\AppData\Local\Temp\ccRw6Wyd.s 			page 13


 335 005e DBB2     		uxtb	r3, r3
 336 0060 254A     		ldr	r2, .L22+20
 337 0062 1370     		strb	r3, [r2]
 260:Generated_Source\PSoC5/cyfitter_cfg.c **** 	CY_SET_XTND_REG16((void CYFAR *)(CYREG_FASTCLK_PLL_CFG0), 0x2251u);
 338              		.loc 1 260 0
 339 0064 254B     		ldr	r3, .L22+24
 340 0066 1D80     		strh	r5, [r3]	@ movhi
 261:Generated_Source\PSoC5/cyfitter_cfg.c **** 	/* Wait up to 250us for the PLL to lock */
 341              		.loc 1 261 0
 342 0068 42F25122 		movw	r2, #8785
 343 006c 023B     		subs	r3, r3, #2
 344 006e 1A80     		strh	r2, [r3]	@ movhi
 345              	.LVL20:
 264:Generated_Source\PSoC5/cyfitter_cfg.c **** 	{ 
 346              		.loc 1 264 0
 347 0070 1925     		movs	r5, #25
 348 0072 0CE0     		b	.L17
 349              	.LVL21:
 350              	.L19:
 266:Generated_Source\PSoC5/cyfitter_cfg.c **** 		CyDelayCycles(10u * 48u); /* Delay 10us based on 48MHz clock */
 351              		.loc 1 266 0 discriminator 4
 352 0074 224B     		ldr	r3, .L22+28
 353 0076 1B78     		ldrb	r3, [r3]	@ zero_extendqisi2
 354 0078 03F00103 		and	r3, r3, #1
 355 007c 43EA4404 		orr	r4, r3, r4, lsl #1
 356              	.LVL22:
 357 0080 04F00304 		and	r4, r4, #3
 358              	.LVL23:
 267:Generated_Source\PSoC5/cyfitter_cfg.c **** 	}
 359              		.loc 1 267 0 discriminator 4
 360 0084 4FF4F070 		mov	r0, #480
 361 0088 FFF7FEFF 		bl	CyDelayCycles
 362              	.LVL24:
 264:Generated_Source\PSoC5/cyfitter_cfg.c **** 	{ 
 363              		.loc 1 264 0 discriminator 4
 364 008c 013D     		subs	r5, r5, #1
 365              	.LVL25:
 366              	.L17:
 264:Generated_Source\PSoC5/cyfitter_cfg.c **** 	{ 
 367              		.loc 1 264 0 is_stmt 0 discriminator 1
 368 008e 0DB1     		cbz	r5, .L18
 264:Generated_Source\PSoC5/cyfitter_cfg.c **** 	{ 
 369              		.loc 1 264 0 discriminator 3
 370 0090 032C     		cmp	r4, #3
 371 0092 EFD1     		bne	.L19
 372              	.L18:
 270:Generated_Source\PSoC5/cyfitter_cfg.c **** 	{
 373              		.loc 1 270 0 is_stmt 1
 374 0094 15B9     		cbnz	r5, .L20
 272:Generated_Source\PSoC5/cyfitter_cfg.c **** 	}
 375              		.loc 1 272 0
 376 0096 0320     		movs	r0, #3
 377 0098 FFF7FEFF 		bl	CyClockStartupError
 378              	.LVL26:
 379              	.L20:
 276:Generated_Source\PSoC5/cyfitter_cfg.c **** 	CY_SET_XTND_REG8((void CYFAR *)(CYREG_CLKDIST_MSTR0), 0x07u);
 380              		.loc 1 276 0
ARM GAS  C:\Users\Joshua\AppData\Local\Temp\ccRw6Wyd.s 			page 14


 381 009c 194B     		ldr	r3, .L22+32
 382 009e 4FF48072 		mov	r2, #256
 383 00a2 1A80     		strh	r2, [r3]	@ movhi
 277:Generated_Source\PSoC5/cyfitter_cfg.c **** 	CY_SET_XTND_REG8((void CYFAR *)(CYREG_CLKDIST_BCFG0), 0x00u);
 384              		.loc 1 277 0
 385 00a4 0722     		movs	r2, #7
 386 00a6 1A70     		strb	r2, [r3]
 278:Generated_Source\PSoC5/cyfitter_cfg.c **** 	CY_SET_XTND_REG8((void CYFAR *)(CYREG_CLKDIST_BCFG2), 0x48u);
 387              		.loc 1 278 0
 388 00a8 0022     		movs	r2, #0
 389 00aa 1749     		ldr	r1, .L22+36
 390 00ac 0A70     		strb	r2, [r1]
 279:Generated_Source\PSoC5/cyfitter_cfg.c **** 	CY_SET_XTND_REG8((void CYFAR *)(CYREG_CLKDIST_MSTR0), 0x00u);
 391              		.loc 1 279 0
 392 00ae 4820     		movs	r0, #72
 393 00b0 0231     		adds	r1, r1, #2
 394 00b2 0870     		strb	r0, [r1]
 280:Generated_Source\PSoC5/cyfitter_cfg.c **** 	CY_SET_XTND_REG8((void CYFAR *)(CYREG_CLKDIST_LD), 0x02u);
 395              		.loc 1 280 0
 396 00b4 1A70     		strb	r2, [r3]
 281:Generated_Source\PSoC5/cyfitter_cfg.c **** 	CY_SET_XTND_REG8((void CYFAR *)(CYREG_CLKDIST_DLY1), 0x04u);
 397              		.loc 1 281 0
 398 00b6 0222     		movs	r2, #2
 399 00b8 033B     		subs	r3, r3, #3
 400 00ba 1A70     		strb	r2, [r3]
 282:Generated_Source\PSoC5/cyfitter_cfg.c **** 
 401              		.loc 1 282 0
 402 00bc 0422     		movs	r2, #4
 403 00be 0A33     		adds	r3, r3, #10
 404 00c0 1A70     		strb	r2, [r3]
 284:Generated_Source\PSoC5/cyfitter_cfg.c **** 	CY_SET_XTND_REG8((void CYFAR *)(CYREG_PM_ACT_CFG1), ((CY_GET_XTND_REG8((void CYFAR *)CYREG_PM_ACT_
 405              		.loc 1 284 0
 406 00c2 124A     		ldr	r2, .L22+40
 407 00c4 1378     		ldrb	r3, [r2]	@ zero_extendqisi2
 408 00c6 43F01F03 		orr	r3, r3, #31
 409 00ca 1370     		strb	r3, [r2]
 285:Generated_Source\PSoC5/cyfitter_cfg.c **** 	CY_SET_XTND_REG8((void CYFAR *)(CYREG_PM_ACT_CFG0), ((CY_GET_XTND_REG8((void CYFAR *)CYREG_PM_ACT_
 410              		.loc 1 285 0
 411 00cc 013A     		subs	r2, r2, #1
 412 00ce 1378     		ldrb	r3, [r2]	@ zero_extendqisi2
 413 00d0 43F00103 		orr	r3, r3, #1
 414 00d4 1370     		strb	r3, [r2]
 286:Generated_Source\PSoC5/cyfitter_cfg.c **** }
 415              		.loc 1 286 0
 416 00d6 013A     		subs	r2, r2, #1
 417 00d8 1378     		ldrb	r3, [r2]	@ zero_extendqisi2
 418 00da 43F08003 		orr	r3, r3, #128
 419 00de 1370     		strb	r3, [r2]
 420 00e0 70BD     		pop	{r4, r5, r6, pc}
 421              	.LVL27:
 422              	.L23:
 423 00e2 00BF     		.align	2
 424              	.L22:
 425 00e4 80400040 		.word	1073758336
 426 00e8 2C030048 		.word	1207960364
 427 00ec 00410040 		.word	1073758464
 428 00f0 00430040 		.word	1073758976
ARM GAS  C:\Users\Joshua\AppData\Local\Temp\ccRw6Wyd.s 			page 15


 429 00f4 08010049 		.word	1224737032
 430 00f8 A1460040 		.word	1073759905
 431 00fc 22420040 		.word	1073758754
 432 0100 25420040 		.word	1073758757
 433 0104 04400040 		.word	1073758212
 434 0108 06400040 		.word	1073758214
 435 010c A2430040 		.word	1073759138
 436              		.cfi_endproc
 437              	.LFE5:
 438              		.size	ClockSetup, .-ClockSetup
 439              		.section	.text.SetAnalogRoutingPumps,"ax",%progbits
 440              		.align	2
 441              		.global	SetAnalogRoutingPumps
 442              		.thumb
 443              		.thumb_func
 444              		.type	SetAnalogRoutingPumps, %function
 445              	SetAnalogRoutingPumps:
 446              	.LFB7:
 328:Generated_Source\PSoC5/cyfitter_cfg.c **** }
 329:Generated_Source\PSoC5/cyfitter_cfg.c **** 
 330:Generated_Source\PSoC5/cyfitter_cfg.c **** 
 331:Generated_Source\PSoC5/cyfitter_cfg.c **** /*******************************************************************************
 332:Generated_Source\PSoC5/cyfitter_cfg.c **** * Function Name: SetAnalogRoutingPumps
 333:Generated_Source\PSoC5/cyfitter_cfg.c **** ********************************************************************************
 334:Generated_Source\PSoC5/cyfitter_cfg.c **** *
 335:Generated_Source\PSoC5/cyfitter_cfg.c **** * Summary:
 336:Generated_Source\PSoC5/cyfitter_cfg.c **** * Enables or disables the analog pumps feeding analog routing switches.
 337:Generated_Source\PSoC5/cyfitter_cfg.c **** * Intended to be called at startup, based on the Vdda system configuration;
 338:Generated_Source\PSoC5/cyfitter_cfg.c **** * may be called during operation when the user informs us that the Vdda voltage
 339:Generated_Source\PSoC5/cyfitter_cfg.c **** * crossed the pump threshold.
 340:Generated_Source\PSoC5/cyfitter_cfg.c **** *
 341:Generated_Source\PSoC5/cyfitter_cfg.c **** * Parameters:
 342:Generated_Source\PSoC5/cyfitter_cfg.c **** *  enabled - 1 to enable the pumps, 0 to disable the pumps
 343:Generated_Source\PSoC5/cyfitter_cfg.c **** *
 344:Generated_Source\PSoC5/cyfitter_cfg.c **** * Return:
 345:Generated_Source\PSoC5/cyfitter_cfg.c **** *  void
 346:Generated_Source\PSoC5/cyfitter_cfg.c **** *
 347:Generated_Source\PSoC5/cyfitter_cfg.c **** *******************************************************************************/
 348:Generated_Source\PSoC5/cyfitter_cfg.c **** void SetAnalogRoutingPumps(uint8 enabled)
 349:Generated_Source\PSoC5/cyfitter_cfg.c **** {
 447              		.loc 1 349 0
 448              		.cfi_startproc
 449              		@ args = 0, pretend = 0, frame = 0
 450              		@ frame_needed = 0, uses_anonymous_args = 0
 451              		@ link register save eliminated.
 452              	.LVL28:
 350:Generated_Source\PSoC5/cyfitter_cfg.c **** 	uint8 regValue = CY_GET_XTND_REG8((void CYFAR *)CYREG_PUMP_CR0);
 453              		.loc 1 350 0
 454 0000 054B     		ldr	r3, .L27
 455 0002 1B78     		ldrb	r3, [r3]	@ zero_extendqisi2
 456 0004 DBB2     		uxtb	r3, r3
 457              	.LVL29:
 351:Generated_Source\PSoC5/cyfitter_cfg.c **** 	if (enabled != 0u)
 458              		.loc 1 351 0
 459 0006 10B1     		cbz	r0, .L25
 352:Generated_Source\PSoC5/cyfitter_cfg.c **** 	{
 353:Generated_Source\PSoC5/cyfitter_cfg.c **** 		regValue |= 0x22u;
ARM GAS  C:\Users\Joshua\AppData\Local\Temp\ccRw6Wyd.s 			page 16


 460              		.loc 1 353 0
 461 0008 43F02203 		orr	r3, r3, #34
 462              	.LVL30:
 463 000c 01E0     		b	.L26
 464              	.L25:
 354:Generated_Source\PSoC5/cyfitter_cfg.c **** 	}
 355:Generated_Source\PSoC5/cyfitter_cfg.c **** 	else
 356:Generated_Source\PSoC5/cyfitter_cfg.c **** 	{
 357:Generated_Source\PSoC5/cyfitter_cfg.c **** 		regValue &= (uint8)~0x22u;
 465              		.loc 1 357 0
 466 000e 03F0DD03 		and	r3, r3, #221
 467              	.LVL31:
 468              	.L26:
 358:Generated_Source\PSoC5/cyfitter_cfg.c **** 	}
 359:Generated_Source\PSoC5/cyfitter_cfg.c **** 	CY_SET_XTND_REG8((void CYFAR *)CYREG_PUMP_CR0, regValue);
 469              		.loc 1 359 0
 470 0012 014A     		ldr	r2, .L27
 471 0014 1370     		strb	r3, [r2]
 472 0016 7047     		bx	lr
 473              	.L28:
 474              		.align	2
 475              	.L27:
 476 0018 76580040 		.word	1073764470
 477              		.cfi_endproc
 478              	.LFE7:
 479              		.size	SetAnalogRoutingPumps, .-SetAnalogRoutingPumps
 480              		.section	.text.AMux_1_CYAMUXSIDE_A_Set,"ax",%progbits
 481              		.align	2
 482              		.global	AMux_1_CYAMUXSIDE_A_Set
 483              		.thumb
 484              		.thumb_func
 485              		.type	AMux_1_CYAMUXSIDE_A_Set, %function
 486              	AMux_1_CYAMUXSIDE_A_Set:
 487              	.LFB8:
 360:Generated_Source\PSoC5/cyfitter_cfg.c **** }
 361:Generated_Source\PSoC5/cyfitter_cfg.c **** 
 362:Generated_Source\PSoC5/cyfitter_cfg.c **** 
 363:Generated_Source\PSoC5/cyfitter_cfg.c **** #define CY_AMUX_UNUSED CYREG_BOOST_SR
 364:Generated_Source\PSoC5/cyfitter_cfg.c **** /* This is an implementation detail of the AMux. Code that depends on it may be
 365:Generated_Source\PSoC5/cyfitter_cfg.c ****    incompatible with other versions of PSoC Creator. */
 366:Generated_Source\PSoC5/cyfitter_cfg.c **** uint8 CYXDATA * const CYCODE AMux_1_CYAMUXSIDE_A__addrTable[2] = {
 367:Generated_Source\PSoC5/cyfitter_cfg.c **** 	(uint8 CYXDATA *)CYREG_DSM0_SW0, 
 368:Generated_Source\PSoC5/cyfitter_cfg.c **** 	(uint8 CYXDATA *)CYREG_DSM0_SW0, 
 369:Generated_Source\PSoC5/cyfitter_cfg.c **** };
 370:Generated_Source\PSoC5/cyfitter_cfg.c **** 
 371:Generated_Source\PSoC5/cyfitter_cfg.c **** /* This is an implementation detail of the AMux. Code that depends on it may be
 372:Generated_Source\PSoC5/cyfitter_cfg.c ****    incompatible with other versions of PSoC Creator. */
 373:Generated_Source\PSoC5/cyfitter_cfg.c **** const uint8 CYCODE AMux_1_CYAMUXSIDE_A__maskTable[2] = {
 374:Generated_Source\PSoC5/cyfitter_cfg.c **** 	0x02u, 
 375:Generated_Source\PSoC5/cyfitter_cfg.c **** 	0x08u, 
 376:Generated_Source\PSoC5/cyfitter_cfg.c **** };
 377:Generated_Source\PSoC5/cyfitter_cfg.c **** 
 378:Generated_Source\PSoC5/cyfitter_cfg.c **** /*******************************************************************************
 379:Generated_Source\PSoC5/cyfitter_cfg.c **** * Function Name: AMux_1_CYAMUXSIDE_A_Set
 380:Generated_Source\PSoC5/cyfitter_cfg.c **** ********************************************************************************
 381:Generated_Source\PSoC5/cyfitter_cfg.c **** * Summary:
 382:Generated_Source\PSoC5/cyfitter_cfg.c **** *  This function is used to set a particular channel as active on the AMux.
ARM GAS  C:\Users\Joshua\AppData\Local\Temp\ccRw6Wyd.s 			page 17


 383:Generated_Source\PSoC5/cyfitter_cfg.c **** *
 384:Generated_Source\PSoC5/cyfitter_cfg.c **** * Parameters:  
 385:Generated_Source\PSoC5/cyfitter_cfg.c **** *   channel - The mux channel input to set as active
 386:Generated_Source\PSoC5/cyfitter_cfg.c **** *
 387:Generated_Source\PSoC5/cyfitter_cfg.c **** * Return:
 388:Generated_Source\PSoC5/cyfitter_cfg.c **** *   void
 389:Generated_Source\PSoC5/cyfitter_cfg.c **** *
 390:Generated_Source\PSoC5/cyfitter_cfg.c **** *******************************************************************************/
 391:Generated_Source\PSoC5/cyfitter_cfg.c **** void AMux_1_CYAMUXSIDE_A_Set(uint8 channel)
 392:Generated_Source\PSoC5/cyfitter_cfg.c **** {
 488              		.loc 1 392 0
 489              		.cfi_startproc
 490              		@ args = 0, pretend = 0, frame = 0
 491              		@ frame_needed = 0, uses_anonymous_args = 0
 492              		@ link register save eliminated.
 493              	.LVL32:
 393:Generated_Source\PSoC5/cyfitter_cfg.c **** 	if (channel < 2)
 494              		.loc 1 393 0
 495 0000 0128     		cmp	r0, #1
 496 0002 07D8     		bhi	.L29
 394:Generated_Source\PSoC5/cyfitter_cfg.c **** 	{
 395:Generated_Source\PSoC5/cyfitter_cfg.c **** 		*AMux_1_CYAMUXSIDE_A__addrTable[channel] |= AMux_1_CYAMUXSIDE_A__maskTable[channel];
 497              		.loc 1 395 0
 498 0004 044B     		ldr	r3, .L31
 499 0006 53F82020 		ldr	r2, [r3, r0, lsl #2]
 500 000a 1844     		add	r0, r0, r3
 501              	.LVL33:
 502 000c 017A     		ldrb	r1, [r0, #8]	@ zero_extendqisi2
 503 000e 1378     		ldrb	r3, [r2]	@ zero_extendqisi2
 504 0010 0B43     		orrs	r3, r3, r1
 505 0012 1370     		strb	r3, [r2]
 506              	.L29:
 507 0014 7047     		bx	lr
 508              	.L32:
 509 0016 00BF     		.align	2
 510              	.L31:
 511 0018 00000000 		.word	.LANCHOR0
 512              		.cfi_endproc
 513              	.LFE8:
 514              		.size	AMux_1_CYAMUXSIDE_A_Set, .-AMux_1_CYAMUXSIDE_A_Set
 515              		.section	.text.AMux_1_CYAMUXSIDE_A_Unset,"ax",%progbits
 516              		.align	2
 517              		.global	AMux_1_CYAMUXSIDE_A_Unset
 518              		.thumb
 519              		.thumb_func
 520              		.type	AMux_1_CYAMUXSIDE_A_Unset, %function
 521              	AMux_1_CYAMUXSIDE_A_Unset:
 522              	.LFB9:
 396:Generated_Source\PSoC5/cyfitter_cfg.c **** 	}
 397:Generated_Source\PSoC5/cyfitter_cfg.c **** }
 398:Generated_Source\PSoC5/cyfitter_cfg.c **** 
 399:Generated_Source\PSoC5/cyfitter_cfg.c **** /*******************************************************************************
 400:Generated_Source\PSoC5/cyfitter_cfg.c **** * Function Name: AMux_1_CYAMUXSIDE_A_Unset
 401:Generated_Source\PSoC5/cyfitter_cfg.c **** ********************************************************************************
 402:Generated_Source\PSoC5/cyfitter_cfg.c **** * Summary:
 403:Generated_Source\PSoC5/cyfitter_cfg.c **** *  This function is used to clear a particular channel from being active on the
 404:Generated_Source\PSoC5/cyfitter_cfg.c **** *  AMux.
ARM GAS  C:\Users\Joshua\AppData\Local\Temp\ccRw6Wyd.s 			page 18


 405:Generated_Source\PSoC5/cyfitter_cfg.c **** *
 406:Generated_Source\PSoC5/cyfitter_cfg.c **** * Parameters:  
 407:Generated_Source\PSoC5/cyfitter_cfg.c **** *   channel - The mux channel input to mark inactive
 408:Generated_Source\PSoC5/cyfitter_cfg.c **** *
 409:Generated_Source\PSoC5/cyfitter_cfg.c **** * Return:
 410:Generated_Source\PSoC5/cyfitter_cfg.c **** *   void
 411:Generated_Source\PSoC5/cyfitter_cfg.c **** *
 412:Generated_Source\PSoC5/cyfitter_cfg.c **** *******************************************************************************/
 413:Generated_Source\PSoC5/cyfitter_cfg.c **** void AMux_1_CYAMUXSIDE_A_Unset(uint8 channel)
 414:Generated_Source\PSoC5/cyfitter_cfg.c **** {
 523              		.loc 1 414 0
 524              		.cfi_startproc
 525              		@ args = 0, pretend = 0, frame = 0
 526              		@ frame_needed = 0, uses_anonymous_args = 0
 527              		@ link register save eliminated.
 528              	.LVL34:
 415:Generated_Source\PSoC5/cyfitter_cfg.c **** 	if (channel < 2)
 529              		.loc 1 415 0
 530 0000 0128     		cmp	r0, #1
 531 0002 08D8     		bhi	.L33
 416:Generated_Source\PSoC5/cyfitter_cfg.c **** 	{
 417:Generated_Source\PSoC5/cyfitter_cfg.c **** 		*AMux_1_CYAMUXSIDE_A__addrTable[channel] &= (uint8)~AMux_1_CYAMUXSIDE_A__maskTable[channel];
 532              		.loc 1 417 0
 533 0004 044B     		ldr	r3, .L35
 534 0006 53F82020 		ldr	r2, [r3, r0, lsl #2]
 535 000a 1844     		add	r0, r0, r3
 536              	.LVL35:
 537 000c 017A     		ldrb	r1, [r0, #8]	@ zero_extendqisi2
 538 000e 1378     		ldrb	r3, [r2]	@ zero_extendqisi2
 539 0010 23EA0103 		bic	r3, r3, r1
 540 0014 1370     		strb	r3, [r2]
 541              	.L33:
 542 0016 7047     		bx	lr
 543              	.L36:
 544              		.align	2
 545              	.L35:
 546 0018 00000000 		.word	.LANCHOR0
 547              		.cfi_endproc
 548              	.LFE9:
 549              		.size	AMux_1_CYAMUXSIDE_A_Unset, .-AMux_1_CYAMUXSIDE_A_Unset
 550              		.section	.text.AMux_1_CYAMUXSIDE_B_Set,"ax",%progbits
 551              		.align	2
 552              		.global	AMux_1_CYAMUXSIDE_B_Set
 553              		.thumb
 554              		.thumb_func
 555              		.type	AMux_1_CYAMUXSIDE_B_Set, %function
 556              	AMux_1_CYAMUXSIDE_B_Set:
 557              	.LFB10:
 418:Generated_Source\PSoC5/cyfitter_cfg.c **** 	}
 419:Generated_Source\PSoC5/cyfitter_cfg.c **** }
 420:Generated_Source\PSoC5/cyfitter_cfg.c **** 
 421:Generated_Source\PSoC5/cyfitter_cfg.c **** /* This is an implementation detail of the AMux. Code that depends on it may be
 422:Generated_Source\PSoC5/cyfitter_cfg.c ****    incompatible with other versions of PSoC Creator. */
 423:Generated_Source\PSoC5/cyfitter_cfg.c **** uint8 CYXDATA * const CYCODE AMux_1_CYAMUXSIDE_B__addrTable[4] = {
 424:Generated_Source\PSoC5/cyfitter_cfg.c **** 	(uint8 CYXDATA *)CYREG_DSM0_SW4, (uint8 CYXDATA *)CY_AMUX_UNUSED, 
 425:Generated_Source\PSoC5/cyfitter_cfg.c **** 	(uint8 CYXDATA *)CYREG_PRT2_AG, (uint8 CYXDATA *)CYREG_DSM0_SW4, 
 426:Generated_Source\PSoC5/cyfitter_cfg.c **** };
ARM GAS  C:\Users\Joshua\AppData\Local\Temp\ccRw6Wyd.s 			page 19


 427:Generated_Source\PSoC5/cyfitter_cfg.c **** 
 428:Generated_Source\PSoC5/cyfitter_cfg.c **** /* This is an implementation detail of the AMux. Code that depends on it may be
 429:Generated_Source\PSoC5/cyfitter_cfg.c ****    incompatible with other versions of PSoC Creator. */
 430:Generated_Source\PSoC5/cyfitter_cfg.c **** const uint8 CYCODE AMux_1_CYAMUXSIDE_B__maskTable[4] = {
 431:Generated_Source\PSoC5/cyfitter_cfg.c **** 	0x08u, 0x00u, 
 432:Generated_Source\PSoC5/cyfitter_cfg.c **** 	0x04u, 0x20u, 
 433:Generated_Source\PSoC5/cyfitter_cfg.c **** };
 434:Generated_Source\PSoC5/cyfitter_cfg.c **** 
 435:Generated_Source\PSoC5/cyfitter_cfg.c **** /*******************************************************************************
 436:Generated_Source\PSoC5/cyfitter_cfg.c **** * Function Name: AMux_1_CYAMUXSIDE_B_Set
 437:Generated_Source\PSoC5/cyfitter_cfg.c **** ********************************************************************************
 438:Generated_Source\PSoC5/cyfitter_cfg.c **** * Summary:
 439:Generated_Source\PSoC5/cyfitter_cfg.c **** *  This function is used to set a particular channel as active on the AMux.
 440:Generated_Source\PSoC5/cyfitter_cfg.c **** *
 441:Generated_Source\PSoC5/cyfitter_cfg.c **** * Parameters:  
 442:Generated_Source\PSoC5/cyfitter_cfg.c **** *   channel - The mux channel input to set as active
 443:Generated_Source\PSoC5/cyfitter_cfg.c **** *
 444:Generated_Source\PSoC5/cyfitter_cfg.c **** * Return:
 445:Generated_Source\PSoC5/cyfitter_cfg.c **** *   void
 446:Generated_Source\PSoC5/cyfitter_cfg.c **** *
 447:Generated_Source\PSoC5/cyfitter_cfg.c **** *******************************************************************************/
 448:Generated_Source\PSoC5/cyfitter_cfg.c **** void AMux_1_CYAMUXSIDE_B_Set(uint8 channel)
 449:Generated_Source\PSoC5/cyfitter_cfg.c **** {
 558              		.loc 1 449 0
 559              		.cfi_startproc
 560              		@ args = 0, pretend = 0, frame = 0
 561              		@ frame_needed = 0, uses_anonymous_args = 0
 562              		@ link register save eliminated.
 563              	.LVL36:
 450:Generated_Source\PSoC5/cyfitter_cfg.c **** 	if (channel < 2)
 564              		.loc 1 450 0
 565 0000 0128     		cmp	r0, #1
 566 0002 16D8     		bhi	.L41
 449:Generated_Source\PSoC5/cyfitter_cfg.c **** 	if (channel < 2)
 567              		.loc 1 449 0
 568 0004 10B4     		push	{r4}
 569              		.cfi_def_cfa_offset 4
 570              		.cfi_offset 4, -4
 451:Generated_Source\PSoC5/cyfitter_cfg.c **** 	{
 452:Generated_Source\PSoC5/cyfitter_cfg.c **** 		channel += channel;
 571              		.loc 1 452 0
 572 0006 4000     		lsls	r0, r0, #1
 573              	.LVL37:
 574 0008 C0B2     		uxtb	r0, r0
 575              	.LVL38:
 453:Generated_Source\PSoC5/cyfitter_cfg.c **** 		*AMux_1_CYAMUXSIDE_B__addrTable[channel] |= AMux_1_CYAMUXSIDE_B__maskTable[channel];
 576              		.loc 1 453 0
 577 000a 0A4B     		ldr	r3, .L42
 578 000c 03EB8002 		add	r2, r3, r0, lsl #2
 579 0010 D168     		ldr	r1, [r2, #12]
 580 0012 1A18     		adds	r2, r3, r0
 581 0014 147F     		ldrb	r4, [r2, #28]	@ zero_extendqisi2
 582 0016 0A78     		ldrb	r2, [r1]	@ zero_extendqisi2
 583 0018 2243     		orrs	r2, r2, r4
 584 001a 0A70     		strb	r2, [r1]
 454:Generated_Source\PSoC5/cyfitter_cfg.c **** 		channel++;
 585              		.loc 1 454 0
ARM GAS  C:\Users\Joshua\AppData\Local\Temp\ccRw6Wyd.s 			page 20


 586 001c 0130     		adds	r0, r0, #1
 587              	.LVL39:
 588 001e C0B2     		uxtb	r0, r0
 589              	.LVL40:
 455:Generated_Source\PSoC5/cyfitter_cfg.c **** 		*AMux_1_CYAMUXSIDE_B__addrTable[channel] |= AMux_1_CYAMUXSIDE_B__maskTable[channel];
 590              		.loc 1 455 0
 591 0020 03EB8002 		add	r2, r3, r0, lsl #2
 592 0024 D268     		ldr	r2, [r2, #12]
 593 0026 1844     		add	r0, r0, r3
 594              	.LVL41:
 595 0028 017F     		ldrb	r1, [r0, #28]	@ zero_extendqisi2
 596 002a 1378     		ldrb	r3, [r2]	@ zero_extendqisi2
 597 002c 0B43     		orrs	r3, r3, r1
 598 002e 1370     		strb	r3, [r2]
 456:Generated_Source\PSoC5/cyfitter_cfg.c **** 	}
 457:Generated_Source\PSoC5/cyfitter_cfg.c **** }
 599              		.loc 1 457 0
 600 0030 10BC     		pop	{r4}
 601              		.cfi_restore 4
 602              		.cfi_def_cfa_offset 0
 603              	.LVL42:
 604              	.L41:
 605 0032 7047     		bx	lr
 606              	.L43:
 607              		.align	2
 608              	.L42:
 609 0034 00000000 		.word	.LANCHOR0
 610              		.cfi_endproc
 611              	.LFE10:
 612              		.size	AMux_1_CYAMUXSIDE_B_Set, .-AMux_1_CYAMUXSIDE_B_Set
 613              		.section	.text.AMux_1_CYAMUXSIDE_B_Unset,"ax",%progbits
 614              		.align	2
 615              		.global	AMux_1_CYAMUXSIDE_B_Unset
 616              		.thumb
 617              		.thumb_func
 618              		.type	AMux_1_CYAMUXSIDE_B_Unset, %function
 619              	AMux_1_CYAMUXSIDE_B_Unset:
 620              	.LFB11:
 458:Generated_Source\PSoC5/cyfitter_cfg.c **** 
 459:Generated_Source\PSoC5/cyfitter_cfg.c **** /*******************************************************************************
 460:Generated_Source\PSoC5/cyfitter_cfg.c **** * Function Name: AMux_1_CYAMUXSIDE_B_Unset
 461:Generated_Source\PSoC5/cyfitter_cfg.c **** ********************************************************************************
 462:Generated_Source\PSoC5/cyfitter_cfg.c **** * Summary:
 463:Generated_Source\PSoC5/cyfitter_cfg.c **** *  This function is used to clear a particular channel from being active on the
 464:Generated_Source\PSoC5/cyfitter_cfg.c **** *  AMux.
 465:Generated_Source\PSoC5/cyfitter_cfg.c **** *
 466:Generated_Source\PSoC5/cyfitter_cfg.c **** * Parameters:  
 467:Generated_Source\PSoC5/cyfitter_cfg.c **** *   channel - The mux channel input to mark inactive
 468:Generated_Source\PSoC5/cyfitter_cfg.c **** *
 469:Generated_Source\PSoC5/cyfitter_cfg.c **** * Return:
 470:Generated_Source\PSoC5/cyfitter_cfg.c **** *   void
 471:Generated_Source\PSoC5/cyfitter_cfg.c **** *
 472:Generated_Source\PSoC5/cyfitter_cfg.c **** *******************************************************************************/
 473:Generated_Source\PSoC5/cyfitter_cfg.c **** void AMux_1_CYAMUXSIDE_B_Unset(uint8 channel)
 474:Generated_Source\PSoC5/cyfitter_cfg.c **** {
 621              		.loc 1 474 0
 622              		.cfi_startproc
ARM GAS  C:\Users\Joshua\AppData\Local\Temp\ccRw6Wyd.s 			page 21


 623              		@ args = 0, pretend = 0, frame = 0
 624              		@ frame_needed = 0, uses_anonymous_args = 0
 625              		@ link register save eliminated.
 626              	.LVL43:
 475:Generated_Source\PSoC5/cyfitter_cfg.c **** 	if (channel < 2)
 627              		.loc 1 475 0
 628 0000 0128     		cmp	r0, #1
 629 0002 18D8     		bhi	.L48
 474:Generated_Source\PSoC5/cyfitter_cfg.c **** 	if (channel < 2)
 630              		.loc 1 474 0
 631 0004 10B4     		push	{r4}
 632              		.cfi_def_cfa_offset 4
 633              		.cfi_offset 4, -4
 476:Generated_Source\PSoC5/cyfitter_cfg.c **** 	{
 477:Generated_Source\PSoC5/cyfitter_cfg.c **** 		channel += channel;
 634              		.loc 1 477 0
 635 0006 4000     		lsls	r0, r0, #1
 636              	.LVL44:
 637 0008 C0B2     		uxtb	r0, r0
 638              	.LVL45:
 478:Generated_Source\PSoC5/cyfitter_cfg.c **** 		*AMux_1_CYAMUXSIDE_B__addrTable[channel] &= (uint8)~AMux_1_CYAMUXSIDE_B__maskTable[channel];
 639              		.loc 1 478 0
 640 000a 0B4B     		ldr	r3, .L49
 641 000c 03EB8002 		add	r2, r3, r0, lsl #2
 642 0010 D168     		ldr	r1, [r2, #12]
 643 0012 1A18     		adds	r2, r3, r0
 644 0014 147F     		ldrb	r4, [r2, #28]	@ zero_extendqisi2
 645 0016 0A78     		ldrb	r2, [r1]	@ zero_extendqisi2
 646 0018 22EA0402 		bic	r2, r2, r4
 647 001c 0A70     		strb	r2, [r1]
 479:Generated_Source\PSoC5/cyfitter_cfg.c **** 		channel++;
 648              		.loc 1 479 0
 649 001e 0130     		adds	r0, r0, #1
 650              	.LVL46:
 651 0020 C0B2     		uxtb	r0, r0
 652              	.LVL47:
 480:Generated_Source\PSoC5/cyfitter_cfg.c **** 		*AMux_1_CYAMUXSIDE_B__addrTable[channel] &= (uint8)~AMux_1_CYAMUXSIDE_B__maskTable[channel];
 653              		.loc 1 480 0
 654 0022 03EB8002 		add	r2, r3, r0, lsl #2
 655 0026 D268     		ldr	r2, [r2, #12]
 656 0028 1844     		add	r0, r0, r3
 657              	.LVL48:
 658 002a 017F     		ldrb	r1, [r0, #28]	@ zero_extendqisi2
 659 002c 1378     		ldrb	r3, [r2]	@ zero_extendqisi2
 660 002e 23EA0103 		bic	r3, r3, r1
 661 0032 1370     		strb	r3, [r2]
 481:Generated_Source\PSoC5/cyfitter_cfg.c **** 	}
 482:Generated_Source\PSoC5/cyfitter_cfg.c **** }
 662              		.loc 1 482 0
 663 0034 10BC     		pop	{r4}
 664              		.cfi_restore 4
 665              		.cfi_def_cfa_offset 0
 666              	.LVL49:
 667              	.L48:
 668 0036 7047     		bx	lr
 669              	.L50:
 670              		.align	2
ARM GAS  C:\Users\Joshua\AppData\Local\Temp\ccRw6Wyd.s 			page 22


 671              	.L49:
 672 0038 00000000 		.word	.LANCHOR0
 673              		.cfi_endproc
 674              	.LFE11:
 675              		.size	AMux_1_CYAMUXSIDE_B_Unset, .-AMux_1_CYAMUXSIDE_B_Unset
 676              		.section	.text.cyfitter_cfg,"ax",%progbits
 677              		.align	2
 678              		.global	cyfitter_cfg
 679              		.thumb
 680              		.thumb_func
 681              		.type	cyfitter_cfg, %function
 682              	cyfitter_cfg:
 683              	.LFB12:
 483:Generated_Source\PSoC5/cyfitter_cfg.c **** 
 484:Generated_Source\PSoC5/cyfitter_cfg.c **** 
 485:Generated_Source\PSoC5/cyfitter_cfg.c **** 
 486:Generated_Source\PSoC5/cyfitter_cfg.c **** /*******************************************************************************
 487:Generated_Source\PSoC5/cyfitter_cfg.c **** * Function Name: cyfitter_cfg
 488:Generated_Source\PSoC5/cyfitter_cfg.c **** ********************************************************************************
 489:Generated_Source\PSoC5/cyfitter_cfg.c **** * Summary:
 490:Generated_Source\PSoC5/cyfitter_cfg.c **** *  This function is called by the start-up code for the selected device. It
 491:Generated_Source\PSoC5/cyfitter_cfg.c **** *  performs all of the necessary device configuration based on the design
 492:Generated_Source\PSoC5/cyfitter_cfg.c **** *  settings.  This includes settings from the Design Wide Resources (DWR) such
 493:Generated_Source\PSoC5/cyfitter_cfg.c **** *  as Clocks and Pins as well as any component configuration that is necessary.
 494:Generated_Source\PSoC5/cyfitter_cfg.c **** *
 495:Generated_Source\PSoC5/cyfitter_cfg.c **** * Parameters:
 496:Generated_Source\PSoC5/cyfitter_cfg.c **** *   void
 497:Generated_Source\PSoC5/cyfitter_cfg.c **** *
 498:Generated_Source\PSoC5/cyfitter_cfg.c **** * Return:
 499:Generated_Source\PSoC5/cyfitter_cfg.c **** *   void
 500:Generated_Source\PSoC5/cyfitter_cfg.c **** *
 501:Generated_Source\PSoC5/cyfitter_cfg.c **** *******************************************************************************/
 502:Generated_Source\PSoC5/cyfitter_cfg.c **** 
 503:Generated_Source\PSoC5/cyfitter_cfg.c **** void cyfitter_cfg(void)
 504:Generated_Source\PSoC5/cyfitter_cfg.c **** {
 684              		.loc 1 504 0
 685              		.cfi_startproc
 686              		@ args = 0, pretend = 0, frame = 0
 687              		@ frame_needed = 0, uses_anonymous_args = 0
 688 0000 10B5     		push	{r4, lr}
 689              		.cfi_def_cfa_offset 8
 690              		.cfi_offset 4, -8
 691              		.cfi_offset 14, -4
 505:Generated_Source\PSoC5/cyfitter_cfg.c **** #ifdef CYGlobalIntDisable
 506:Generated_Source\PSoC5/cyfitter_cfg.c **** 	/* Disable interrupts by default. Let user enable if/when they want. */
 507:Generated_Source\PSoC5/cyfitter_cfg.c **** 	CYGlobalIntDisable
 692              		.loc 1 507 0
 693              		.syntax unified
 694              	@ 507 "Generated_Source\PSoC5\cyfitter_cfg.c" 1
 695 0002 72B6     		CPSID   i
 696              	@ 0 "" 2
 508:Generated_Source\PSoC5/cyfitter_cfg.c **** #endif
 509:Generated_Source\PSoC5/cyfitter_cfg.c **** 
 510:Generated_Source\PSoC5/cyfitter_cfg.c **** 
 511:Generated_Source\PSoC5/cyfitter_cfg.c **** 	/* Set Flash Cycles based on max possible frequency in case a glitch occurs during ClockSetup(). *
 512:Generated_Source\PSoC5/cyfitter_cfg.c **** 	CY_SET_XTND_REG8((void CYFAR *)(CYREG_CACHE_CC_CTL), (((CYDEV_INSTRUCT_CACHE_ENABLED) != 0) ? 0x61
 697              		.loc 1 512 0
ARM GAS  C:\Users\Joshua\AppData\Local\Temp\ccRw6Wyd.s 			page 23


 698              		.thumb
 699              		.syntax unified
 700 0004 6122     		movs	r2, #97
 701 0006 344B     		ldr	r3, .L55
 702 0008 1A70     		strb	r2, [r3]
 513:Generated_Source\PSoC5/cyfitter_cfg.c **** 	/* Setup clocks based on selections from Clock DWR */
 514:Generated_Source\PSoC5/cyfitter_cfg.c **** 	ClockSetup();
 703              		.loc 1 514 0
 704 000a FFF7FEFF 		bl	ClockSetup
 705              	.LVL50:
 515:Generated_Source\PSoC5/cyfitter_cfg.c **** 	/* Enable/Disable Debug functionality based on settings from System DWR */
 516:Generated_Source\PSoC5/cyfitter_cfg.c **** 	CY_SET_XTND_REG8((void CYFAR *)CYREG_MLOGIC_DEBUG, (CY_GET_XTND_REG8((void CYFAR *)CYREG_MLOGIC_DE
 706              		.loc 1 516 0
 707 000e 334A     		ldr	r2, .L55+4
 708 0010 1378     		ldrb	r3, [r2]	@ zero_extendqisi2
 709 0012 43F00403 		orr	r3, r3, #4
 710 0016 1370     		strb	r3, [r2]
 711              	.LVL51:
 712              	.LBB3:
 517:Generated_Source\PSoC5/cyfitter_cfg.c **** 
 518:Generated_Source\PSoC5/cyfitter_cfg.c **** 	{
 519:Generated_Source\PSoC5/cyfitter_cfg.c **** 
 520:Generated_Source\PSoC5/cyfitter_cfg.c **** 		CYPACKED typedef struct {
 521:Generated_Source\PSoC5/cyfitter_cfg.c **** 			void CYFAR *address;
 522:Generated_Source\PSoC5/cyfitter_cfg.c **** 			uint16 size;
 523:Generated_Source\PSoC5/cyfitter_cfg.c **** 		} CYPACKED_ATTR cfg_memset_t;
 524:Generated_Source\PSoC5/cyfitter_cfg.c **** 
 525:Generated_Source\PSoC5/cyfitter_cfg.c **** 		static const cfg_memset_t CYCODE cfg_memset_list[] = {
 526:Generated_Source\PSoC5/cyfitter_cfg.c **** 			/* address, size */
 527:Generated_Source\PSoC5/cyfitter_cfg.c **** 			{(void CYFAR *)(CYREG_TMR0_CFG0), 12u},
 528:Generated_Source\PSoC5/cyfitter_cfg.c **** 			{(void CYFAR *)(CYREG_PRT4_DR), 48u},
 529:Generated_Source\PSoC5/cyfitter_cfg.c **** 			{(void CYFAR *)(CYREG_PRT12_DR), 16u},
 530:Generated_Source\PSoC5/cyfitter_cfg.c **** 			{(void CYFAR *)(CYREG_PRT15_DR), 16u},
 531:Generated_Source\PSoC5/cyfitter_cfg.c **** 			{(void CYFAR *)(CYDEV_UCFG_B0_P0_U0_BASE), 4096u},
 532:Generated_Source\PSoC5/cyfitter_cfg.c **** 			{(void CYFAR *)(CYDEV_UCFG_B1_P2_U0_BASE), 2048u},
 533:Generated_Source\PSoC5/cyfitter_cfg.c **** 			{(void CYFAR *)(CYDEV_UCFG_DSI0_BASE), 2560u},
 534:Generated_Source\PSoC5/cyfitter_cfg.c **** 			{(void CYFAR *)(CYDEV_UCFG_DSI12_BASE), 512u},
 535:Generated_Source\PSoC5/cyfitter_cfg.c **** 			{(void CYFAR *)(CYREG_BCTL0_MDCLK_EN), 32u},
 536:Generated_Source\PSoC5/cyfitter_cfg.c **** 		};
 537:Generated_Source\PSoC5/cyfitter_cfg.c **** 
 538:Generated_Source\PSoC5/cyfitter_cfg.c **** 		uint8 CYDATA i;
 539:Generated_Source\PSoC5/cyfitter_cfg.c **** 
 540:Generated_Source\PSoC5/cyfitter_cfg.c **** 		/* Zero out critical memory blocks before beginning configuration */
 541:Generated_Source\PSoC5/cyfitter_cfg.c **** 		for (i = 0u; i < (sizeof(cfg_memset_list)/sizeof(cfg_memset_list[0])); i++)
 713              		.loc 1 541 0
 714 0018 0024     		movs	r4, #0
 715 001a 0BE0     		b	.L52
 716              	.LVL52:
 717              	.L53:
 718              	.LBB4:
 542:Generated_Source\PSoC5/cyfitter_cfg.c **** 		{
 543:Generated_Source\PSoC5/cyfitter_cfg.c **** 			const cfg_memset_t CYCODE * CYDATA ms = &cfg_memset_list[i];
 544:Generated_Source\PSoC5/cyfitter_cfg.c **** 			CYMEMZERO(ms->address, (size_t)(uint32)(ms->size));
 719              		.loc 1 544 0 discriminator 3
 720 001c 3048     		ldr	r0, .L55+8
 721 001e 6300     		lsls	r3, r4, #1
 722 0020 1A19     		adds	r2, r3, r4
ARM GAS  C:\Users\Joshua\AppData\Local\Temp\ccRw6Wyd.s 			page 24


 723 0022 5100     		lsls	r1, r2, #1
 724 0024 0144     		add	r1, r1, r0
 725 0026 0A46     		mov	r2, r1
 726 0028 898C     		ldrh	r1, [r1, #36]
 727 002a 106A     		ldr	r0, [r2, #32]	@ unaligned
 728 002c FFF7FEFF 		bl	CYMEMZERO
 729              	.LVL53:
 730              	.LBE4:
 541:Generated_Source\PSoC5/cyfitter_cfg.c **** 		{
 731              		.loc 1 541 0 discriminator 3
 732 0030 0134     		adds	r4, r4, #1
 733              	.LVL54:
 734 0032 E4B2     		uxtb	r4, r4
 735              	.LVL55:
 736              	.L52:
 541:Generated_Source\PSoC5/cyfitter_cfg.c **** 		{
 737              		.loc 1 541 0 is_stmt 0 discriminator 1
 738 0034 082C     		cmp	r4, #8
 739 0036 F1D9     		bls	.L53
 545:Generated_Source\PSoC5/cyfitter_cfg.c **** 		}
 546:Generated_Source\PSoC5/cyfitter_cfg.c **** 
 547:Generated_Source\PSoC5/cyfitter_cfg.c **** 		cfg_write_bytes32(cy_cfg_addr_table, cy_cfg_data_table);
 740              		.loc 1 547 0 is_stmt 1
 741 0038 2A49     		ldr	r1, .L55+12
 742 003a 4FF09040 		mov	r0, #1207959552
 743 003e FFF7FEFF 		bl	cfg_write_bytes32
 744              	.LVL56:
 548:Generated_Source\PSoC5/cyfitter_cfg.c **** 
 549:Generated_Source\PSoC5/cyfitter_cfg.c **** 		/* Perform normal device configuration. Order is not critical for these items. */
 550:Generated_Source\PSoC5/cyfitter_cfg.c **** 		CY_SET_XTND_REG8((void CYFAR *)(CYREG_DSM0_CR3), 0x0Au);
 745              		.loc 1 550 0
 746 0042 0A22     		movs	r2, #10
 747 0044 284B     		ldr	r3, .L55+16
 748 0046 1A70     		strb	r2, [r3]
 551:Generated_Source\PSoC5/cyfitter_cfg.c **** 		CYMEMZERO((void CYFAR *)(CYREG_PHUB_CFGMEM0_CFG0), 4u);
 749              		.loc 1 551 0
 750 0048 0421     		movs	r1, #4
 751 004a 2848     		ldr	r0, .L55+20
 752 004c FFF7FEFF 		bl	CYMEMZERO
 753              	.LVL57:
 552:Generated_Source\PSoC5/cyfitter_cfg.c **** 		CYMEMZERO((void CYFAR *)(CYREG_PHUB_CFGMEM1_CFG0), 4u);
 754              		.loc 1 552 0
 755 0050 0421     		movs	r1, #4
 756 0052 2748     		ldr	r0, .L55+24
 757 0054 FFF7FEFF 		bl	CYMEMZERO
 758              	.LVL58:
 553:Generated_Source\PSoC5/cyfitter_cfg.c **** 		CYMEMZERO((void CYFAR *)(CYREG_PHUB_CFGMEM2_CFG0), 4u);
 759              		.loc 1 553 0
 760 0058 0421     		movs	r1, #4
 761 005a 2648     		ldr	r0, .L55+28
 762 005c FFF7FEFF 		bl	CYMEMZERO
 763              	.LVL59:
 554:Generated_Source\PSoC5/cyfitter_cfg.c **** 		CYMEMZERO((void CYFAR *)(CYREG_PHUB_CFGMEM3_CFG0), 4u);
 764              		.loc 1 554 0
 765 0060 0421     		movs	r1, #4
 766 0062 2548     		ldr	r0, .L55+32
 767 0064 FFF7FEFF 		bl	CYMEMZERO
ARM GAS  C:\Users\Joshua\AppData\Local\Temp\ccRw6Wyd.s 			page 25


 768              	.LVL60:
 555:Generated_Source\PSoC5/cyfitter_cfg.c **** 
 556:Generated_Source\PSoC5/cyfitter_cfg.c **** 		/* Enable digital routing */
 557:Generated_Source\PSoC5/cyfitter_cfg.c **** 		CY_SET_XTND_REG8((void CYFAR *)CYREG_BCTL0_BANK_CTL, CY_GET_XTND_REG8((void CYFAR *)CYREG_BCTL0_B
 769              		.loc 1 557 0
 770 0068 244A     		ldr	r2, .L55+36
 771 006a 1378     		ldrb	r3, [r2]	@ zero_extendqisi2
 772 006c 43F00203 		orr	r3, r3, #2
 773 0070 1370     		strb	r3, [r2]
 558:Generated_Source\PSoC5/cyfitter_cfg.c **** 		CY_SET_XTND_REG8((void CYFAR *)CYREG_BCTL1_BANK_CTL, CY_GET_XTND_REG8((void CYFAR *)CYREG_BCTL1_B
 774              		.loc 1 558 0
 775 0072 1032     		adds	r2, r2, #16
 776 0074 1378     		ldrb	r3, [r2]	@ zero_extendqisi2
 777 0076 43F00203 		orr	r3, r3, #2
 778 007a 1370     		strb	r3, [r2]
 559:Generated_Source\PSoC5/cyfitter_cfg.c **** 
 560:Generated_Source\PSoC5/cyfitter_cfg.c **** 		/* Enable UDB array */
 561:Generated_Source\PSoC5/cyfitter_cfg.c **** 		CY_SET_XTND_REG8((void CYFAR *)CYREG_PM_ACT_CFG0, CY_GET_XTND_REG8((void CYFAR *)CYREG_PM_ACT_CFG
 779              		.loc 1 561 0
 780 007c 204C     		ldr	r4, .L55+40
 781              	.LVL61:
 782 007e 2378     		ldrb	r3, [r4]	@ zero_extendqisi2
 783 0080 43F04003 		orr	r3, r3, #64
 784 0084 2370     		strb	r3, [r4]
 562:Generated_Source\PSoC5/cyfitter_cfg.c **** 		CY_SET_XTND_REG8((void CYFAR *)CYREG_PM_AVAIL_CR2, CY_GET_XTND_REG8((void CYFAR *)CYREG_PM_AVAIL_
 785              		.loc 1 562 0
 786 0086 A2F58632 		sub	r2, r2, #68608
 787 008a 513A     		subs	r2, r2, #81
 788 008c 1378     		ldrb	r3, [r2]	@ zero_extendqisi2
 789 008e 43F01003 		orr	r3, r3, #16
 790 0092 1370     		strb	r3, [r2]
 791              	.LBE3:
 563:Generated_Source\PSoC5/cyfitter_cfg.c **** 	}
 564:Generated_Source\PSoC5/cyfitter_cfg.c **** 
 565:Generated_Source\PSoC5/cyfitter_cfg.c **** 
 566:Generated_Source\PSoC5/cyfitter_cfg.c **** 	/* Perform second pass device configuration. These items must be configured in specific order afte
 567:Generated_Source\PSoC5/cyfitter_cfg.c **** 	CYCONFIGCPY((void CYFAR *)(CYREG_PRT0_DM0), (const void CYFAR *)(BS_IOPINS0_0_VAL), 8u);
 792              		.loc 1 567 0
 793 0094 0822     		movs	r2, #8
 794 0096 1B49     		ldr	r1, .L55+44
 795 0098 1B48     		ldr	r0, .L55+48
 796 009a FFF7FEFF 		bl	CYCONFIGCPY
 797              	.LVL62:
 568:Generated_Source\PSoC5/cyfitter_cfg.c **** 	CYCONFIGCPY((void CYFAR *)(CYREG_PRT1_DM0), (const void CYFAR *)(BS_IOPINS0_1_VAL), 8u);
 798              		.loc 1 568 0
 799 009e 0822     		movs	r2, #8
 800 00a0 1A49     		ldr	r1, .L55+52
 801 00a2 1B48     		ldr	r0, .L55+56
 802 00a4 FFF7FEFF 		bl	CYCONFIGCPY
 803              	.LVL63:
 569:Generated_Source\PSoC5/cyfitter_cfg.c **** 	CYCONFIGCPY((void CYFAR *)(CYREG_PRT2_DM0), (const void CYFAR *)(BS_IOPINS0_2_VAL), 8u);
 804              		.loc 1 569 0
 805 00a8 0822     		movs	r2, #8
 806 00aa 1A49     		ldr	r1, .L55+60
 807 00ac 1A48     		ldr	r0, .L55+64
 808 00ae FFF7FEFF 		bl	CYCONFIGCPY
 809              	.LVL64:
ARM GAS  C:\Users\Joshua\AppData\Local\Temp\ccRw6Wyd.s 			page 26


 570:Generated_Source\PSoC5/cyfitter_cfg.c **** 	CYCONFIGCPY((void CYFAR *)(CYREG_PRT3_DM0), (const void CYFAR *)(BS_IOPINS0_3_VAL), 8u);
 810              		.loc 1 570 0
 811 00b2 0822     		movs	r2, #8
 812 00b4 1949     		ldr	r1, .L55+68
 813 00b6 1A48     		ldr	r0, .L55+72
 814 00b8 FFF7FEFF 		bl	CYCONFIGCPY
 815              	.LVL65:
 571:Generated_Source\PSoC5/cyfitter_cfg.c **** 	/* Switch Boost to the precision bandgap reference from its internal reference */
 572:Generated_Source\PSoC5/cyfitter_cfg.c **** 	CY_SET_REG8((void CYXDATA *)CYREG_BOOST_CR2, (CY_GET_REG8((void CYXDATA *)CYREG_BOOST_CR2) | 0x08u
 816              		.loc 1 572 0
 817 00bc 194A     		ldr	r2, .L55+76
 818 00be 1378     		ldrb	r3, [r2]	@ zero_extendqisi2
 819 00c0 43F00803 		orr	r3, r3, #8
 820 00c4 1370     		strb	r3, [r2]
 573:Generated_Source\PSoC5/cyfitter_cfg.c **** 
 574:Generated_Source\PSoC5/cyfitter_cfg.c **** 	/* Perform basic analog initialization to defaults */
 575:Generated_Source\PSoC5/cyfitter_cfg.c **** 	AnalogSetDefault();
 821              		.loc 1 575 0
 822 00c6 FFF7FEFF 		bl	AnalogSetDefault
 823              	.LVL66:
 576:Generated_Source\PSoC5/cyfitter_cfg.c **** 
 577:Generated_Source\PSoC5/cyfitter_cfg.c **** 	/* Configure alternate active mode */
 578:Generated_Source\PSoC5/cyfitter_cfg.c **** 	CYCONFIGCPY((void CYFAR *)CYDEV_PM_STBY_BASE, (const void CYFAR *)CYDEV_PM_ACT_BASE, 14u);
 824              		.loc 1 578 0
 825 00ca 0E22     		movs	r2, #14
 826 00cc 2146     		mov	r1, r4
 827 00ce 1648     		ldr	r0, .L55+80
 828 00d0 FFF7FEFF 		bl	CYCONFIGCPY
 829              	.LVL67:
 830 00d4 10BD     		pop	{r4, pc}
 831              	.L56:
 832 00d6 00BF     		.align	2
 833              	.L55:
 834 00d8 00480040 		.word	1073760256
 835 00dc E8460040 		.word	1073759976
 836 00e0 00000000 		.word	.LANCHOR0
 837 00e4 80000048 		.word	1207959680
 838 00e8 83580040 		.word	1073764483
 839 00ec 00760040 		.word	1073772032
 840 00f0 08760040 		.word	1073772040
 841 00f4 10760040 		.word	1073772048
 842 00f8 18760040 		.word	1073772056
 843 00fc 03500140 		.word	1073827843
 844 0100 A0430040 		.word	1073759136
 845 0104 0C030048 		.word	1207960332
 846 0108 02510040 		.word	1073762562
 847 010c 14030048 		.word	1207960340
 848 0110 12510040 		.word	1073762578
 849 0114 1C030048 		.word	1207960348
 850 0118 22510040 		.word	1073762594
 851 011c 24030048 		.word	1207960356
 852 0120 32510040 		.word	1073762610
 853 0124 22430040 		.word	1073759010
 854 0128 B0430040 		.word	1073759152
 855              		.cfi_endproc
 856              	.LFE12:
 857              		.size	cyfitter_cfg, .-cyfitter_cfg
ARM GAS  C:\Users\Joshua\AppData\Local\Temp\ccRw6Wyd.s 			page 27


 858              		.global	AMux_1_CYAMUXSIDE_B__maskTable
 859              		.global	AMux_1_CYAMUXSIDE_B__addrTable
 860              		.global	AMux_1_CYAMUXSIDE_A__maskTable
 861              		.global	AMux_1_CYAMUXSIDE_A__addrTable
 862              		.section	.rodata
 863              		.align	2
 864              		.set	.LANCHOR0,. + 0
 865              		.type	AMux_1_CYAMUXSIDE_A__addrTable, %object
 866              		.size	AMux_1_CYAMUXSIDE_A__addrTable, 8
 867              	AMux_1_CYAMUXSIDE_A__addrTable:
 868 0000 005B0040 		.word	1073765120
 869 0004 005B0040 		.word	1073765120
 870              		.type	AMux_1_CYAMUXSIDE_A__maskTable, %object
 871              		.size	AMux_1_CYAMUXSIDE_A__maskTable, 2
 872              	AMux_1_CYAMUXSIDE_A__maskTable:
 873 0008 02       		.byte	2
 874 0009 08       		.byte	8
 875 000a 0000     		.space	2
 876              		.type	AMux_1_CYAMUXSIDE_B__addrTable, %object
 877              		.size	AMux_1_CYAMUXSIDE_B__addrTable, 16
 878              	AMux_1_CYAMUXSIDE_B__addrTable:
 879 000c 045B0040 		.word	1073765124
 880 0010 24430040 		.word	1073759012
 881 0014 2D510040 		.word	1073762605
 882 0018 045B0040 		.word	1073765124
 883              		.type	AMux_1_CYAMUXSIDE_B__maskTable, %object
 884              		.size	AMux_1_CYAMUXSIDE_B__maskTable, 4
 885              	AMux_1_CYAMUXSIDE_B__maskTable:
 886 001c 08       		.byte	8
 887 001d 00       		.byte	0
 888 001e 04       		.byte	4
 889 001f 20       		.byte	32
 890              		.type	cfg_memset_list.5031, %object
 891              		.size	cfg_memset_list.5031, 54
 892              	cfg_memset_list.5031:
 893 0020 004F0040 		.word	1073762048
 894 0024 0C00     		.short	12
 895 0026 40510040 		.4byte	1073762624
 896 002a 3000     		.short	48
 897 002c C0510040 		.word	1073762752
 898 0030 1000     		.short	16
 899 0032 F0510040 		.4byte	1073762800
 900 0036 1000     		.short	16
 901 0038 00000140 		.word	1073807360
 902 003c 0010     		.short	4096
 903 003e 00140140 		.4byte	1073812480
 904 0042 0008     		.short	2048
 905 0044 00400140 		.word	1073823744
 906 0048 000A     		.short	2560
 907 004a 004C0140 		.4byte	1073826816
 908 004e 0002     		.short	512
 909 0050 00500140 		.word	1073827840
 910 0054 2000     		.short	32
 911              		.text
 912              	.Letext0:
 913              		.file 2 "c:\\program files (x86)\\cypress\\psoc creator\\4.1\\psoc creator\\import\\gnu\\arm\\5.4.
 914              		.file 3 "Generated_Source\\PSoC5\\cytypes.h"
ARM GAS  C:\Users\Joshua\AppData\Local\Temp\ccRw6Wyd.s 			page 28


 915              		.file 4 "Generated_Source\\PSoC5\\CyLib.h"