ARM GAS  C:\Users\Joshua\AppData\Local\Temp\ccg1QVqJ.s 			page 1


   1              		.syntax unified
   2              		.cpu cortex-m3
   3              		.fpu softvfp
   4              		.eabi_attribute 20, 1
   5              		.eabi_attribute 21, 1
   6              		.eabi_attribute 23, 3
   7              		.eabi_attribute 24, 1
   8              		.eabi_attribute 25, 1
   9              		.eabi_attribute 26, 1
  10              		.eabi_attribute 30, 1
  11              		.eabi_attribute 34, 1
  12              		.eabi_attribute 18, 4
  13              		.thumb
  14              		.syntax unified
  15              		.file	"mass_air.c"
  16              		.text
  17              	.Ltext0:
  18              		.cfi_sections	.debug_frame
  19              		.global	__aeabi_f2uiz
  20              		.global	__aeabi_fdiv
  21              		.global	__aeabi_fmul
  22              		.global	__aeabi_fadd
  23              		.global	__aeabi_fcmpgt
  24              		.section	.text.mass_air_Interrupt,"ax",%progbits
  25              		.align	2
  26              		.global	mass_air_Interrupt
  27              		.thumb
  28              		.thumb_func
  29              		.type	mass_air_Interrupt, %function
  30              	mass_air_Interrupt:
  31              	.LFB67:
  32              		.file 1 "Generated_Source\\PSoC5\\mass_air.c"
   1:Generated_Source\PSoC5/mass_air.c **** /*******************************************************************************
   2:Generated_Source\PSoC5/mass_air.c **** * File Name: mass_air.c  
   3:Generated_Source\PSoC5/mass_air.c **** * Version 1.70
   4:Generated_Source\PSoC5/mass_air.c **** *
   5:Generated_Source\PSoC5/mass_air.c **** *  Description:
   6:Generated_Source\PSoC5/mass_air.c **** *   API for controlling the state of an interrupt.
   7:Generated_Source\PSoC5/mass_air.c **** *
   8:Generated_Source\PSoC5/mass_air.c **** *
   9:Generated_Source\PSoC5/mass_air.c **** *  Note:
  10:Generated_Source\PSoC5/mass_air.c **** *
  11:Generated_Source\PSoC5/mass_air.c **** ********************************************************************************
  12:Generated_Source\PSoC5/mass_air.c **** * Copyright 2008-2015, Cypress Semiconductor Corporation.  All rights reserved.
  13:Generated_Source\PSoC5/mass_air.c **** * You may use this file only in accordance with the license, terms, conditions, 
  14:Generated_Source\PSoC5/mass_air.c **** * disclaimers, and limitations in the end user license agreement accompanying 
  15:Generated_Source\PSoC5/mass_air.c **** * the software package with which this file was provided.
  16:Generated_Source\PSoC5/mass_air.c **** *******************************************************************************/
  17:Generated_Source\PSoC5/mass_air.c **** 
  18:Generated_Source\PSoC5/mass_air.c **** 
  19:Generated_Source\PSoC5/mass_air.c **** #include <cydevice_trm.h>
  20:Generated_Source\PSoC5/mass_air.c **** #include <CyLib.h>
  21:Generated_Source\PSoC5/mass_air.c **** #include <mass_air.h>
  22:Generated_Source\PSoC5/mass_air.c **** #include "cyapicallbacks.h"
  23:Generated_Source\PSoC5/mass_air.c **** 
  24:Generated_Source\PSoC5/mass_air.c **** #if !defined(mass_air__REMOVED) /* Check for removal by optimization */
  25:Generated_Source\PSoC5/mass_air.c **** 
ARM GAS  C:\Users\Joshua\AppData\Local\Temp\ccg1QVqJ.s 			page 2


  26:Generated_Source\PSoC5/mass_air.c **** /*******************************************************************************
  27:Generated_Source\PSoC5/mass_air.c **** *  Place your includes, defines and code here 
  28:Generated_Source\PSoC5/mass_air.c **** ********************************************************************************/
  29:Generated_Source\PSoC5/mass_air.c **** /* `#START mass_air_intc` */
  30:Generated_Source\PSoC5/mass_air.c **** #include <macros.h>
  31:Generated_Source\PSoC5/mass_air.c **** extern volatile float RPM;
  32:Generated_Source\PSoC5/mass_air.c **** extern volatile float mass_air_voltage;
  33:Generated_Source\PSoC5/mass_air.c **** extern volatile float mass_air_variable;
  34:Generated_Source\PSoC5/mass_air.c **** extern volatile int Not_runing;    
  35:Generated_Source\PSoC5/mass_air.c **** extern volatile int RPM_Count;    
  36:Generated_Source\PSoC5/mass_air.c **** /* `#END` */
  37:Generated_Source\PSoC5/mass_air.c **** 
  38:Generated_Source\PSoC5/mass_air.c **** #ifndef CYINT_IRQ_BASE
  39:Generated_Source\PSoC5/mass_air.c **** #define CYINT_IRQ_BASE      16
  40:Generated_Source\PSoC5/mass_air.c **** #endif /* CYINT_IRQ_BASE */
  41:Generated_Source\PSoC5/mass_air.c **** #ifndef CYINT_VECT_TABLE
  42:Generated_Source\PSoC5/mass_air.c **** #define CYINT_VECT_TABLE    ((cyisraddress **) CYREG_NVIC_VECT_OFFSET)
  43:Generated_Source\PSoC5/mass_air.c **** #endif /* CYINT_VECT_TABLE */
  44:Generated_Source\PSoC5/mass_air.c **** 
  45:Generated_Source\PSoC5/mass_air.c **** /* Declared in startup, used to set unused interrupts to. */
  46:Generated_Source\PSoC5/mass_air.c **** CY_ISR_PROTO(IntDefaultHandler);
  47:Generated_Source\PSoC5/mass_air.c **** 
  48:Generated_Source\PSoC5/mass_air.c **** 
  49:Generated_Source\PSoC5/mass_air.c **** /*******************************************************************************
  50:Generated_Source\PSoC5/mass_air.c **** * Function Name: mass_air_Start
  51:Generated_Source\PSoC5/mass_air.c **** ********************************************************************************
  52:Generated_Source\PSoC5/mass_air.c **** *
  53:Generated_Source\PSoC5/mass_air.c **** * Summary:
  54:Generated_Source\PSoC5/mass_air.c **** *  Set up the interrupt and enable it. This function disables the interrupt, 
  55:Generated_Source\PSoC5/mass_air.c **** *  sets the default interrupt vector, sets the priority from the value in the
  56:Generated_Source\PSoC5/mass_air.c **** *  Design Wide Resources Interrupt Editor, then enables the interrupt to the 
  57:Generated_Source\PSoC5/mass_air.c **** *  interrupt controller.
  58:Generated_Source\PSoC5/mass_air.c **** *
  59:Generated_Source\PSoC5/mass_air.c **** * Parameters:  
  60:Generated_Source\PSoC5/mass_air.c **** *   None
  61:Generated_Source\PSoC5/mass_air.c **** *
  62:Generated_Source\PSoC5/mass_air.c **** * Return:
  63:Generated_Source\PSoC5/mass_air.c **** *   None
  64:Generated_Source\PSoC5/mass_air.c **** *
  65:Generated_Source\PSoC5/mass_air.c **** *******************************************************************************/
  66:Generated_Source\PSoC5/mass_air.c **** void mass_air_Start(void)
  67:Generated_Source\PSoC5/mass_air.c **** {
  68:Generated_Source\PSoC5/mass_air.c ****     /* For all we know the interrupt is active. */
  69:Generated_Source\PSoC5/mass_air.c ****     mass_air_Disable();
  70:Generated_Source\PSoC5/mass_air.c **** 
  71:Generated_Source\PSoC5/mass_air.c ****     /* Set the ISR to point to the mass_air Interrupt. */
  72:Generated_Source\PSoC5/mass_air.c ****     mass_air_SetVector(&mass_air_Interrupt);
  73:Generated_Source\PSoC5/mass_air.c **** 
  74:Generated_Source\PSoC5/mass_air.c ****     /* Set the priority. */
  75:Generated_Source\PSoC5/mass_air.c ****     mass_air_SetPriority((uint8)mass_air_INTC_PRIOR_NUMBER);
  76:Generated_Source\PSoC5/mass_air.c **** 
  77:Generated_Source\PSoC5/mass_air.c ****     /* Enable it. */
  78:Generated_Source\PSoC5/mass_air.c ****     mass_air_Enable();
  79:Generated_Source\PSoC5/mass_air.c **** }
  80:Generated_Source\PSoC5/mass_air.c **** 
  81:Generated_Source\PSoC5/mass_air.c **** 
  82:Generated_Source\PSoC5/mass_air.c **** /*******************************************************************************
ARM GAS  C:\Users\Joshua\AppData\Local\Temp\ccg1QVqJ.s 			page 3


  83:Generated_Source\PSoC5/mass_air.c **** * Function Name: mass_air_StartEx
  84:Generated_Source\PSoC5/mass_air.c **** ********************************************************************************
  85:Generated_Source\PSoC5/mass_air.c **** *
  86:Generated_Source\PSoC5/mass_air.c **** * Summary:
  87:Generated_Source\PSoC5/mass_air.c **** *  Sets up the interrupt and enables it. This function disables the interrupt,
  88:Generated_Source\PSoC5/mass_air.c **** *  sets the interrupt vector based on the address passed in, sets the priority 
  89:Generated_Source\PSoC5/mass_air.c **** *  from the value in the Design Wide Resources Interrupt Editor, then enables 
  90:Generated_Source\PSoC5/mass_air.c **** *  the interrupt to the interrupt controller.
  91:Generated_Source\PSoC5/mass_air.c **** *  
  92:Generated_Source\PSoC5/mass_air.c **** *  When defining ISR functions, the CY_ISR and CY_ISR_PROTO macros should be 
  93:Generated_Source\PSoC5/mass_air.c **** *  used to provide consistent definition across compilers:
  94:Generated_Source\PSoC5/mass_air.c **** *  
  95:Generated_Source\PSoC5/mass_air.c **** *  Function definition example:
  96:Generated_Source\PSoC5/mass_air.c **** *   CY_ISR(MyISR)
  97:Generated_Source\PSoC5/mass_air.c **** *   {
  98:Generated_Source\PSoC5/mass_air.c **** *   }
  99:Generated_Source\PSoC5/mass_air.c **** *   Function prototype example:
 100:Generated_Source\PSoC5/mass_air.c **** *   CY_ISR_PROTO(MyISR);
 101:Generated_Source\PSoC5/mass_air.c **** *
 102:Generated_Source\PSoC5/mass_air.c **** * Parameters:  
 103:Generated_Source\PSoC5/mass_air.c **** *   address: Address of the ISR to set in the interrupt vector table.
 104:Generated_Source\PSoC5/mass_air.c **** *
 105:Generated_Source\PSoC5/mass_air.c **** * Return:
 106:Generated_Source\PSoC5/mass_air.c **** *   None
 107:Generated_Source\PSoC5/mass_air.c **** *
 108:Generated_Source\PSoC5/mass_air.c **** *******************************************************************************/
 109:Generated_Source\PSoC5/mass_air.c **** void mass_air_StartEx(cyisraddress address)
 110:Generated_Source\PSoC5/mass_air.c **** {
 111:Generated_Source\PSoC5/mass_air.c ****     /* For all we know the interrupt is active. */
 112:Generated_Source\PSoC5/mass_air.c ****     mass_air_Disable();
 113:Generated_Source\PSoC5/mass_air.c **** 
 114:Generated_Source\PSoC5/mass_air.c ****     /* Set the ISR to point to the mass_air Interrupt. */
 115:Generated_Source\PSoC5/mass_air.c ****     mass_air_SetVector(address);
 116:Generated_Source\PSoC5/mass_air.c **** 
 117:Generated_Source\PSoC5/mass_air.c ****     /* Set the priority. */
 118:Generated_Source\PSoC5/mass_air.c ****     mass_air_SetPriority((uint8)mass_air_INTC_PRIOR_NUMBER);
 119:Generated_Source\PSoC5/mass_air.c **** 
 120:Generated_Source\PSoC5/mass_air.c ****     /* Enable it. */
 121:Generated_Source\PSoC5/mass_air.c ****     mass_air_Enable();
 122:Generated_Source\PSoC5/mass_air.c **** }
 123:Generated_Source\PSoC5/mass_air.c **** 
 124:Generated_Source\PSoC5/mass_air.c **** 
 125:Generated_Source\PSoC5/mass_air.c **** /*******************************************************************************
 126:Generated_Source\PSoC5/mass_air.c **** * Function Name: mass_air_Stop
 127:Generated_Source\PSoC5/mass_air.c **** ********************************************************************************
 128:Generated_Source\PSoC5/mass_air.c **** *
 129:Generated_Source\PSoC5/mass_air.c **** * Summary:
 130:Generated_Source\PSoC5/mass_air.c **** *   Disables and removes the interrupt.
 131:Generated_Source\PSoC5/mass_air.c **** *
 132:Generated_Source\PSoC5/mass_air.c **** * Parameters:  
 133:Generated_Source\PSoC5/mass_air.c **** *   None
 134:Generated_Source\PSoC5/mass_air.c **** *
 135:Generated_Source\PSoC5/mass_air.c **** * Return:
 136:Generated_Source\PSoC5/mass_air.c **** *   None
 137:Generated_Source\PSoC5/mass_air.c **** *
 138:Generated_Source\PSoC5/mass_air.c **** *******************************************************************************/
 139:Generated_Source\PSoC5/mass_air.c **** void mass_air_Stop(void)
ARM GAS  C:\Users\Joshua\AppData\Local\Temp\ccg1QVqJ.s 			page 4


 140:Generated_Source\PSoC5/mass_air.c **** {
 141:Generated_Source\PSoC5/mass_air.c ****     /* Disable this interrupt. */
 142:Generated_Source\PSoC5/mass_air.c ****     mass_air_Disable();
 143:Generated_Source\PSoC5/mass_air.c **** 
 144:Generated_Source\PSoC5/mass_air.c ****     /* Set the ISR to point to the passive one. */
 145:Generated_Source\PSoC5/mass_air.c ****     mass_air_SetVector(&IntDefaultHandler);
 146:Generated_Source\PSoC5/mass_air.c **** }
 147:Generated_Source\PSoC5/mass_air.c **** 
 148:Generated_Source\PSoC5/mass_air.c **** 
 149:Generated_Source\PSoC5/mass_air.c **** /*******************************************************************************
 150:Generated_Source\PSoC5/mass_air.c **** * Function Name: mass_air_Interrupt
 151:Generated_Source\PSoC5/mass_air.c **** ********************************************************************************
 152:Generated_Source\PSoC5/mass_air.c **** *
 153:Generated_Source\PSoC5/mass_air.c **** * Summary:
 154:Generated_Source\PSoC5/mass_air.c **** *   The default Interrupt Service Routine for mass_air.
 155:Generated_Source\PSoC5/mass_air.c **** *
 156:Generated_Source\PSoC5/mass_air.c **** *   Add custom code between the coments to keep the next version of this file
 157:Generated_Source\PSoC5/mass_air.c **** *   from over writting your code.
 158:Generated_Source\PSoC5/mass_air.c **** *
 159:Generated_Source\PSoC5/mass_air.c **** * Parameters:  
 160:Generated_Source\PSoC5/mass_air.c **** *
 161:Generated_Source\PSoC5/mass_air.c **** * Return:
 162:Generated_Source\PSoC5/mass_air.c **** *   None
 163:Generated_Source\PSoC5/mass_air.c **** *
 164:Generated_Source\PSoC5/mass_air.c **** *******************************************************************************/
 165:Generated_Source\PSoC5/mass_air.c **** CY_ISR(mass_air_Interrupt)
 166:Generated_Source\PSoC5/mass_air.c **** {
  33              		.loc 1 166 0
  34              		.cfi_startproc
  35              		@ args = 0, pretend = 0, frame = 0
  36              		@ frame_needed = 0, uses_anonymous_args = 0
  37 0000 10B5     		push	{r4, lr}
  38              		.cfi_def_cfa_offset 8
  39              		.cfi_offset 4, -8
  40              		.cfi_offset 14, -4
 167:Generated_Source\PSoC5/mass_air.c ****     #ifdef mass_air_INTERRUPT_INTERRUPT_CALLBACK
 168:Generated_Source\PSoC5/mass_air.c ****         mass_air_Interrupt_InterruptCallback();
 169:Generated_Source\PSoC5/mass_air.c ****     #endif /* mass_air_INTERRUPT_INTERRUPT_CALLBACK */ 
 170:Generated_Source\PSoC5/mass_air.c **** 
 171:Generated_Source\PSoC5/mass_air.c ****     /*  Place your Interrupt code here. */
 172:Generated_Source\PSoC5/mass_air.c ****     /* `#START mass_air_Interrupt` */
 173:Generated_Source\PSoC5/mass_air.c **** float mass_voltage;
 174:Generated_Source\PSoC5/mass_air.c ****     
 175:Generated_Source\PSoC5/mass_air.c ****     
 176:Generated_Source\PSoC5/mass_air.c ****     if (RPM_Count<=3){// was 10 checking to see if it gets rid of the check engine code for mass ai
  41              		.loc 1 176 0
  42 0002 1A4B     		ldr	r3, .L8
  43 0004 1B68     		ldr	r3, [r3]
  44 0006 032B     		cmp	r3, #3
  45 0008 09DC     		bgt	.L2
  46              	.LVL0:
 177:Generated_Source\PSoC5/mass_air.c **** 				mass_voltage=63;// this is the default value of the mass air flow sensor if it is not running
 178:Generated_Source\PSoC5/mass_air.c **** 				mass_air_voltage=mass_voltage;
  47              		.loc 1 178 0
  48 000a 194B     		ldr	r3, .L8+4
  49 000c 194A     		ldr	r2, .L8+8
  50 000e 1A60     		str	r2, [r3]	@ float
ARM GAS  C:\Users\Joshua\AppData\Local\Temp\ccg1QVqJ.s 			page 5


 179:Generated_Source\PSoC5/mass_air.c **** 				MASS_AIRFLOW_SetValue(mass_air_voltage);
  51              		.loc 1 179 0
  52 0010 1868     		ldr	r0, [r3]	@ float
  53 0012 FFF7FEFF 		bl	__aeabi_f2uiz
  54              	.LVL1:
  55 0016 C0B2     		uxtb	r0, r0
  56 0018 FFF7FEFF 		bl	MASS_AIRFLOW_SetValue
  57              	.LVL2:
  58 001c 10BD     		pop	{r4, pc}
  59              	.LVL3:
  60              	.L2:
 180:Generated_Source\PSoC5/mass_air.c **** 		 }
 181:Generated_Source\PSoC5/mass_air.c **** 	    else{
 182:Generated_Source\PSoC5/mass_air.c **** 	        //mass_voltage=(.000532683*RPM)+1.1913668;// 120/RPM is the actual RPM of the engine!!!
 183:Generated_Source\PSoC5/mass_air.c **** 	        mass_air_voltage=(( mass_air_variable*(120/RPM)+744400)/10000);//
  61              		.loc 1 183 0
  62 001e 164C     		ldr	r4, .L8+12
  63 0020 2168     		ldr	r1, [r4]	@ float
  64 0022 1648     		ldr	r0, .L8+16
  65 0024 FFF7FEFF 		bl	__aeabi_fdiv
  66              	.LVL4:
  67 0028 154B     		ldr	r3, .L8+20
  68 002a 1968     		ldr	r1, [r3]	@ float
  69 002c FFF7FEFF 		bl	__aeabi_fmul
  70              	.LVL5:
  71 0030 1449     		ldr	r1, .L8+24
  72 0032 FFF7FEFF 		bl	__aeabi_fadd
  73              	.LVL6:
  74 0036 1449     		ldr	r1, .L8+28
  75 0038 FFF7FEFF 		bl	__aeabi_fdiv
  76              	.LVL7:
  77 003c 0C4B     		ldr	r3, .L8+4
  78 003e 1860     		str	r0, [r3]	@ float
 184:Generated_Source\PSoC5/mass_air.c ****             if ((120/RPM)> 2500){
  79              		.loc 1 184 0
  80 0040 2168     		ldr	r1, [r4]	@ float
  81 0042 0E48     		ldr	r0, .L8+16
  82 0044 FFF7FEFF 		bl	__aeabi_fdiv
  83              	.LVL8:
  84 0048 1049     		ldr	r1, .L8+32
  85 004a FFF7FEFF 		bl	__aeabi_fcmpgt
  86              	.LVL9:
  87 004e 28B1     		cbz	r0, .L4
 185:Generated_Source\PSoC5/mass_air.c ****                 mass_air_voltage=mass_air_voltage+50;
  88              		.loc 1 185 0
  89 0050 074C     		ldr	r4, .L8+4
  90 0052 2068     		ldr	r0, [r4]	@ float
  91 0054 0E49     		ldr	r1, .L8+36
  92 0056 FFF7FEFF 		bl	__aeabi_fadd
  93              	.LVL10:
  94 005a 2060     		str	r0, [r4]	@ float
  95              	.L4:
 186:Generated_Source\PSoC5/mass_air.c ****             }
 187:Generated_Source\PSoC5/mass_air.c **** 	        MASS_AIRFLOW_SetValue((uint8)mass_air_voltage);
  96              		.loc 1 187 0
  97 005c 044B     		ldr	r3, .L8+4
  98 005e 1868     		ldr	r0, [r3]	@ float
ARM GAS  C:\Users\Joshua\AppData\Local\Temp\ccg1QVqJ.s 			page 6


  99 0060 FFF7FEFF 		bl	__aeabi_f2uiz
 100              	.LVL11:
 101 0064 C0B2     		uxtb	r0, r0
 102 0066 FFF7FEFF 		bl	MASS_AIRFLOW_SetValue
 103              	.LVL12:
 104 006a 10BD     		pop	{r4, pc}
 105              	.L9:
 106              		.align	2
 107              	.L8:
 108 006c 00000000 		.word	RPM_Count
 109 0070 00000000 		.word	mass_air_voltage
 110 0074 00007C42 		.word	1115422720
 111 0078 00000000 		.word	RPM
 112 007c 0000F042 		.word	1123024896
 113 0080 00000000 		.word	mass_air_variable
 114 0084 00BD3549 		.word	1228258560
 115 0088 00401C46 		.word	1176256512
 116 008c 00401C45 		.word	1159479296
 117 0090 00004842 		.word	1112014848
 118              		.cfi_endproc
 119              	.LFE67:
 120              		.size	mass_air_Interrupt, .-mass_air_Interrupt
 121              		.section	.text.mass_air_SetVector,"ax",%progbits
 122              		.align	2
 123              		.global	mass_air_SetVector
 124              		.thumb
 125              		.thumb_func
 126              		.type	mass_air_SetVector, %function
 127              	mass_air_SetVector:
 128              	.LFB68:
 188:Generated_Source\PSoC5/mass_air.c ****         }
 189:Generated_Source\PSoC5/mass_air.c ****     
 190:Generated_Source\PSoC5/mass_air.c ****     
 191:Generated_Source\PSoC5/mass_air.c ****     
 192:Generated_Source\PSoC5/mass_air.c ****     
 193:Generated_Source\PSoC5/mass_air.c ****     
 194:Generated_Source\PSoC5/mass_air.c ****     /* `#END` */
 195:Generated_Source\PSoC5/mass_air.c **** }
 196:Generated_Source\PSoC5/mass_air.c **** 
 197:Generated_Source\PSoC5/mass_air.c **** 
 198:Generated_Source\PSoC5/mass_air.c **** /*******************************************************************************
 199:Generated_Source\PSoC5/mass_air.c **** * Function Name: mass_air_SetVector
 200:Generated_Source\PSoC5/mass_air.c **** ********************************************************************************
 201:Generated_Source\PSoC5/mass_air.c **** *
 202:Generated_Source\PSoC5/mass_air.c **** * Summary:
 203:Generated_Source\PSoC5/mass_air.c **** *   Change the ISR vector for the Interrupt. Note calling mass_air_Start
 204:Generated_Source\PSoC5/mass_air.c **** *   will override any effect this method would have had. To set the vector 
 205:Generated_Source\PSoC5/mass_air.c **** *   before the component has been started use mass_air_StartEx instead.
 206:Generated_Source\PSoC5/mass_air.c **** * 
 207:Generated_Source\PSoC5/mass_air.c **** *   When defining ISR functions, the CY_ISR and CY_ISR_PROTO macros should be 
 208:Generated_Source\PSoC5/mass_air.c **** *   used to provide consistent definition across compilers:
 209:Generated_Source\PSoC5/mass_air.c **** *
 210:Generated_Source\PSoC5/mass_air.c **** *   Function definition example:
 211:Generated_Source\PSoC5/mass_air.c **** *   CY_ISR(MyISR)
 212:Generated_Source\PSoC5/mass_air.c **** *   {
 213:Generated_Source\PSoC5/mass_air.c **** *   }
 214:Generated_Source\PSoC5/mass_air.c **** *
ARM GAS  C:\Users\Joshua\AppData\Local\Temp\ccg1QVqJ.s 			page 7


 215:Generated_Source\PSoC5/mass_air.c **** *   Function prototype example:
 216:Generated_Source\PSoC5/mass_air.c **** *     CY_ISR_PROTO(MyISR);
 217:Generated_Source\PSoC5/mass_air.c **** *
 218:Generated_Source\PSoC5/mass_air.c **** * Parameters:
 219:Generated_Source\PSoC5/mass_air.c **** *   address: Address of the ISR to set in the interrupt vector table.
 220:Generated_Source\PSoC5/mass_air.c **** *
 221:Generated_Source\PSoC5/mass_air.c **** * Return:
 222:Generated_Source\PSoC5/mass_air.c **** *   None
 223:Generated_Source\PSoC5/mass_air.c **** *
 224:Generated_Source\PSoC5/mass_air.c **** *******************************************************************************/
 225:Generated_Source\PSoC5/mass_air.c **** void mass_air_SetVector(cyisraddress address)
 226:Generated_Source\PSoC5/mass_air.c **** {
 129              		.loc 1 226 0
 130              		.cfi_startproc
 131              		@ args = 0, pretend = 0, frame = 0
 132              		@ frame_needed = 0, uses_anonymous_args = 0
 133              		@ link register save eliminated.
 134              	.LVL13:
 227:Generated_Source\PSoC5/mass_air.c ****     cyisraddress * ramVectorTable;
 228:Generated_Source\PSoC5/mass_air.c **** 
 229:Generated_Source\PSoC5/mass_air.c ****     ramVectorTable = (cyisraddress *) *CYINT_VECT_TABLE;
 135              		.loc 1 229 0
 136 0000 014B     		ldr	r3, .L11
 137 0002 1B68     		ldr	r3, [r3]
 138              	.LVL14:
 230:Generated_Source\PSoC5/mass_air.c **** 
 231:Generated_Source\PSoC5/mass_air.c ****     ramVectorTable[CYINT_IRQ_BASE + (uint32)mass_air__INTC_NUMBER] = address;
 139              		.loc 1 231 0
 140 0004 D864     		str	r0, [r3, #76]
 141 0006 7047     		bx	lr
 142              	.L12:
 143              		.align	2
 144              	.L11:
 145 0008 08ED00E0 		.word	-536810232
 146              		.cfi_endproc
 147              	.LFE68:
 148              		.size	mass_air_SetVector, .-mass_air_SetVector
 149              		.section	.text.mass_air_GetVector,"ax",%progbits
 150              		.align	2
 151              		.global	mass_air_GetVector
 152              		.thumb
 153              		.thumb_func
 154              		.type	mass_air_GetVector, %function
 155              	mass_air_GetVector:
 156              	.LFB69:
 232:Generated_Source\PSoC5/mass_air.c **** }
 233:Generated_Source\PSoC5/mass_air.c **** 
 234:Generated_Source\PSoC5/mass_air.c **** 
 235:Generated_Source\PSoC5/mass_air.c **** /*******************************************************************************
 236:Generated_Source\PSoC5/mass_air.c **** * Function Name: mass_air_GetVector
 237:Generated_Source\PSoC5/mass_air.c **** ********************************************************************************
 238:Generated_Source\PSoC5/mass_air.c **** *
 239:Generated_Source\PSoC5/mass_air.c **** * Summary:
 240:Generated_Source\PSoC5/mass_air.c **** *   Gets the "address" of the current ISR vector for the Interrupt.
 241:Generated_Source\PSoC5/mass_air.c **** *
 242:Generated_Source\PSoC5/mass_air.c **** * Parameters:
 243:Generated_Source\PSoC5/mass_air.c **** *   None
ARM GAS  C:\Users\Joshua\AppData\Local\Temp\ccg1QVqJ.s 			page 8


 244:Generated_Source\PSoC5/mass_air.c **** *
 245:Generated_Source\PSoC5/mass_air.c **** * Return:
 246:Generated_Source\PSoC5/mass_air.c **** *   Address of the ISR in the interrupt vector table.
 247:Generated_Source\PSoC5/mass_air.c **** *
 248:Generated_Source\PSoC5/mass_air.c **** *******************************************************************************/
 249:Generated_Source\PSoC5/mass_air.c **** cyisraddress mass_air_GetVector(void)
 250:Generated_Source\PSoC5/mass_air.c **** {
 157              		.loc 1 250 0
 158              		.cfi_startproc
 159              		@ args = 0, pretend = 0, frame = 0
 160              		@ frame_needed = 0, uses_anonymous_args = 0
 161              		@ link register save eliminated.
 251:Generated_Source\PSoC5/mass_air.c ****     cyisraddress * ramVectorTable;
 252:Generated_Source\PSoC5/mass_air.c **** 
 253:Generated_Source\PSoC5/mass_air.c ****     ramVectorTable = (cyisraddress *) *CYINT_VECT_TABLE;
 162              		.loc 1 253 0
 163 0000 014B     		ldr	r3, .L14
 164 0002 1B68     		ldr	r3, [r3]
 165              	.LVL15:
 254:Generated_Source\PSoC5/mass_air.c **** 
 255:Generated_Source\PSoC5/mass_air.c ****     return ramVectorTable[CYINT_IRQ_BASE + (uint32)mass_air__INTC_NUMBER];
 256:Generated_Source\PSoC5/mass_air.c **** }
 166              		.loc 1 256 0
 167 0004 D86C     		ldr	r0, [r3, #76]
 168 0006 7047     		bx	lr
 169              	.L15:
 170              		.align	2
 171              	.L14:
 172 0008 08ED00E0 		.word	-536810232
 173              		.cfi_endproc
 174              	.LFE69:
 175              		.size	mass_air_GetVector, .-mass_air_GetVector
 176              		.section	.text.mass_air_SetPriority,"ax",%progbits
 177              		.align	2
 178              		.global	mass_air_SetPriority
 179              		.thumb
 180              		.thumb_func
 181              		.type	mass_air_SetPriority, %function
 182              	mass_air_SetPriority:
 183              	.LFB70:
 257:Generated_Source\PSoC5/mass_air.c **** 
 258:Generated_Source\PSoC5/mass_air.c **** 
 259:Generated_Source\PSoC5/mass_air.c **** /*******************************************************************************
 260:Generated_Source\PSoC5/mass_air.c **** * Function Name: mass_air_SetPriority
 261:Generated_Source\PSoC5/mass_air.c **** ********************************************************************************
 262:Generated_Source\PSoC5/mass_air.c **** *
 263:Generated_Source\PSoC5/mass_air.c **** * Summary:
 264:Generated_Source\PSoC5/mass_air.c **** *   Sets the Priority of the Interrupt. 
 265:Generated_Source\PSoC5/mass_air.c **** *
 266:Generated_Source\PSoC5/mass_air.c **** *   Note calling mass_air_Start or mass_air_StartEx will 
 267:Generated_Source\PSoC5/mass_air.c **** *   override any effect this API would have had. This API should only be called
 268:Generated_Source\PSoC5/mass_air.c **** *   after mass_air_Start or mass_air_StartEx has been called. 
 269:Generated_Source\PSoC5/mass_air.c **** *   To set the initial priority for the component, use the Design-Wide Resources
 270:Generated_Source\PSoC5/mass_air.c **** *   Interrupt Editor.
 271:Generated_Source\PSoC5/mass_air.c **** *
 272:Generated_Source\PSoC5/mass_air.c **** *   Note This API has no effect on Non-maskable interrupt NMI).
 273:Generated_Source\PSoC5/mass_air.c **** *
ARM GAS  C:\Users\Joshua\AppData\Local\Temp\ccg1QVqJ.s 			page 9


 274:Generated_Source\PSoC5/mass_air.c **** * Parameters:
 275:Generated_Source\PSoC5/mass_air.c **** *   priority: Priority of the interrupt, 0 being the highest priority
 276:Generated_Source\PSoC5/mass_air.c **** *             PSoC 3 and PSoC 5LP: Priority is from 0 to 7.
 277:Generated_Source\PSoC5/mass_air.c **** *             PSoC 4: Priority is from 0 to 3.
 278:Generated_Source\PSoC5/mass_air.c **** *
 279:Generated_Source\PSoC5/mass_air.c **** * Return:
 280:Generated_Source\PSoC5/mass_air.c **** *   None
 281:Generated_Source\PSoC5/mass_air.c **** *
 282:Generated_Source\PSoC5/mass_air.c **** *******************************************************************************/
 283:Generated_Source\PSoC5/mass_air.c **** void mass_air_SetPriority(uint8 priority)
 284:Generated_Source\PSoC5/mass_air.c **** {
 184              		.loc 1 284 0
 185              		.cfi_startproc
 186              		@ args = 0, pretend = 0, frame = 0
 187              		@ frame_needed = 0, uses_anonymous_args = 0
 188              		@ link register save eliminated.
 189              	.LVL16:
 285:Generated_Source\PSoC5/mass_air.c ****     *mass_air_INTC_PRIOR = priority << 5;
 190              		.loc 1 285 0
 191 0000 4001     		lsls	r0, r0, #5
 192              	.LVL17:
 193 0002 C0B2     		uxtb	r0, r0
 194 0004 014B     		ldr	r3, .L17
 195 0006 1870     		strb	r0, [r3]
 196 0008 7047     		bx	lr
 197              	.L18:
 198 000a 00BF     		.align	2
 199              	.L17:
 200 000c 03E400E0 		.word	-536812541
 201              		.cfi_endproc
 202              	.LFE70:
 203              		.size	mass_air_SetPriority, .-mass_air_SetPriority
 204              		.section	.text.mass_air_GetPriority,"ax",%progbits
 205              		.align	2
 206              		.global	mass_air_GetPriority
 207              		.thumb
 208              		.thumb_func
 209              		.type	mass_air_GetPriority, %function
 210              	mass_air_GetPriority:
 211              	.LFB71:
 286:Generated_Source\PSoC5/mass_air.c **** }
 287:Generated_Source\PSoC5/mass_air.c **** 
 288:Generated_Source\PSoC5/mass_air.c **** 
 289:Generated_Source\PSoC5/mass_air.c **** /*******************************************************************************
 290:Generated_Source\PSoC5/mass_air.c **** * Function Name: mass_air_GetPriority
 291:Generated_Source\PSoC5/mass_air.c **** ********************************************************************************
 292:Generated_Source\PSoC5/mass_air.c **** *
 293:Generated_Source\PSoC5/mass_air.c **** * Summary:
 294:Generated_Source\PSoC5/mass_air.c **** *   Gets the Priority of the Interrupt.
 295:Generated_Source\PSoC5/mass_air.c **** *
 296:Generated_Source\PSoC5/mass_air.c **** * Parameters:
 297:Generated_Source\PSoC5/mass_air.c **** *   None
 298:Generated_Source\PSoC5/mass_air.c **** *
 299:Generated_Source\PSoC5/mass_air.c **** * Return:
 300:Generated_Source\PSoC5/mass_air.c **** *   Priority of the interrupt, 0 being the highest priority
 301:Generated_Source\PSoC5/mass_air.c **** *    PSoC 3 and PSoC 5LP: Priority is from 0 to 7.
 302:Generated_Source\PSoC5/mass_air.c **** *    PSoC 4: Priority is from 0 to 3.
ARM GAS  C:\Users\Joshua\AppData\Local\Temp\ccg1QVqJ.s 			page 10


 303:Generated_Source\PSoC5/mass_air.c **** *
 304:Generated_Source\PSoC5/mass_air.c **** *******************************************************************************/
 305:Generated_Source\PSoC5/mass_air.c **** uint8 mass_air_GetPriority(void)
 306:Generated_Source\PSoC5/mass_air.c **** {
 212              		.loc 1 306 0
 213              		.cfi_startproc
 214              		@ args = 0, pretend = 0, frame = 0
 215              		@ frame_needed = 0, uses_anonymous_args = 0
 216              		@ link register save eliminated.
 307:Generated_Source\PSoC5/mass_air.c ****     uint8 priority;
 308:Generated_Source\PSoC5/mass_air.c **** 
 309:Generated_Source\PSoC5/mass_air.c **** 
 310:Generated_Source\PSoC5/mass_air.c ****     priority = *mass_air_INTC_PRIOR >> 5;
 217              		.loc 1 310 0
 218 0000 014B     		ldr	r3, .L20
 219 0002 1878     		ldrb	r0, [r3]	@ zero_extendqisi2
 220              	.LVL18:
 311:Generated_Source\PSoC5/mass_air.c **** 
 312:Generated_Source\PSoC5/mass_air.c ****     return priority;
 313:Generated_Source\PSoC5/mass_air.c **** }
 221              		.loc 1 313 0
 222 0004 4009     		lsrs	r0, r0, #5
 223              	.LVL19:
 224 0006 7047     		bx	lr
 225              	.L21:
 226              		.align	2
 227              	.L20:
 228 0008 03E400E0 		.word	-536812541
 229              		.cfi_endproc
 230              	.LFE71:
 231              		.size	mass_air_GetPriority, .-mass_air_GetPriority
 232              		.section	.text.mass_air_Enable,"ax",%progbits
 233              		.align	2
 234              		.global	mass_air_Enable
 235              		.thumb
 236              		.thumb_func
 237              		.type	mass_air_Enable, %function
 238              	mass_air_Enable:
 239              	.LFB72:
 314:Generated_Source\PSoC5/mass_air.c **** 
 315:Generated_Source\PSoC5/mass_air.c **** 
 316:Generated_Source\PSoC5/mass_air.c **** /*******************************************************************************
 317:Generated_Source\PSoC5/mass_air.c **** * Function Name: mass_air_Enable
 318:Generated_Source\PSoC5/mass_air.c **** ********************************************************************************
 319:Generated_Source\PSoC5/mass_air.c **** *
 320:Generated_Source\PSoC5/mass_air.c **** * Summary:
 321:Generated_Source\PSoC5/mass_air.c **** *   Enables the interrupt to the interrupt controller. Do not call this function
 322:Generated_Source\PSoC5/mass_air.c **** *   unless ISR_Start() has been called or the functionality of the ISR_Start() 
 323:Generated_Source\PSoC5/mass_air.c **** *   function, which sets the vector and the priority, has been called.
 324:Generated_Source\PSoC5/mass_air.c **** *
 325:Generated_Source\PSoC5/mass_air.c **** * Parameters:
 326:Generated_Source\PSoC5/mass_air.c **** *   None
 327:Generated_Source\PSoC5/mass_air.c **** *
 328:Generated_Source\PSoC5/mass_air.c **** * Return:
 329:Generated_Source\PSoC5/mass_air.c **** *   None
 330:Generated_Source\PSoC5/mass_air.c **** *
 331:Generated_Source\PSoC5/mass_air.c **** *******************************************************************************/
ARM GAS  C:\Users\Joshua\AppData\Local\Temp\ccg1QVqJ.s 			page 11


 332:Generated_Source\PSoC5/mass_air.c **** void mass_air_Enable(void)
 333:Generated_Source\PSoC5/mass_air.c **** {
 240              		.loc 1 333 0
 241              		.cfi_startproc
 242              		@ args = 0, pretend = 0, frame = 0
 243              		@ frame_needed = 0, uses_anonymous_args = 0
 244              		@ link register save eliminated.
 334:Generated_Source\PSoC5/mass_air.c ****     /* Enable the general interrupt. */
 335:Generated_Source\PSoC5/mass_air.c ****     *mass_air_INTC_SET_EN = mass_air__INTC_MASK;
 245              		.loc 1 335 0
 246 0000 0822     		movs	r2, #8
 247 0002 014B     		ldr	r3, .L23
 248 0004 1A60     		str	r2, [r3]
 249 0006 7047     		bx	lr
 250              	.L24:
 251              		.align	2
 252              	.L23:
 253 0008 00E100E0 		.word	-536813312
 254              		.cfi_endproc
 255              	.LFE72:
 256              		.size	mass_air_Enable, .-mass_air_Enable
 257              		.section	.text.mass_air_GetState,"ax",%progbits
 258              		.align	2
 259              		.global	mass_air_GetState
 260              		.thumb
 261              		.thumb_func
 262              		.type	mass_air_GetState, %function
 263              	mass_air_GetState:
 264              	.LFB73:
 336:Generated_Source\PSoC5/mass_air.c **** }
 337:Generated_Source\PSoC5/mass_air.c **** 
 338:Generated_Source\PSoC5/mass_air.c **** 
 339:Generated_Source\PSoC5/mass_air.c **** /*******************************************************************************
 340:Generated_Source\PSoC5/mass_air.c **** * Function Name: mass_air_GetState
 341:Generated_Source\PSoC5/mass_air.c **** ********************************************************************************
 342:Generated_Source\PSoC5/mass_air.c **** *
 343:Generated_Source\PSoC5/mass_air.c **** * Summary:
 344:Generated_Source\PSoC5/mass_air.c **** *   Gets the state (enabled, disabled) of the Interrupt.
 345:Generated_Source\PSoC5/mass_air.c **** *
 346:Generated_Source\PSoC5/mass_air.c **** * Parameters:
 347:Generated_Source\PSoC5/mass_air.c **** *   None
 348:Generated_Source\PSoC5/mass_air.c **** *
 349:Generated_Source\PSoC5/mass_air.c **** * Return:
 350:Generated_Source\PSoC5/mass_air.c **** *   1 if enabled, 0 if disabled.
 351:Generated_Source\PSoC5/mass_air.c **** *
 352:Generated_Source\PSoC5/mass_air.c **** *******************************************************************************/
 353:Generated_Source\PSoC5/mass_air.c **** uint8 mass_air_GetState(void)
 354:Generated_Source\PSoC5/mass_air.c **** {
 265              		.loc 1 354 0
 266              		.cfi_startproc
 267              		@ args = 0, pretend = 0, frame = 0
 268              		@ frame_needed = 0, uses_anonymous_args = 0
 269              		@ link register save eliminated.
 355:Generated_Source\PSoC5/mass_air.c ****     /* Get the state of the general interrupt. */
 356:Generated_Source\PSoC5/mass_air.c ****     return ((*mass_air_INTC_SET_EN & (uint32)mass_air__INTC_MASK) != 0u) ? 1u:0u;
 270              		.loc 1 356 0
 271 0000 044B     		ldr	r3, .L28
ARM GAS  C:\Users\Joshua\AppData\Local\Temp\ccg1QVqJ.s 			page 12


 272 0002 1B68     		ldr	r3, [r3]
 273 0004 13F0080F 		tst	r3, #8
 274 0008 01D0     		beq	.L27
 275 000a 0120     		movs	r0, #1
 276 000c 7047     		bx	lr
 277              	.L27:
 278 000e 0020     		movs	r0, #0
 357:Generated_Source\PSoC5/mass_air.c **** }
 279              		.loc 1 357 0
 280 0010 7047     		bx	lr
 281              	.L29:
 282 0012 00BF     		.align	2
 283              	.L28:
 284 0014 00E100E0 		.word	-536813312
 285              		.cfi_endproc
 286              	.LFE73:
 287              		.size	mass_air_GetState, .-mass_air_GetState
 288              		.section	.text.mass_air_Disable,"ax",%progbits
 289              		.align	2
 290              		.global	mass_air_Disable
 291              		.thumb
 292              		.thumb_func
 293              		.type	mass_air_Disable, %function
 294              	mass_air_Disable:
 295              	.LFB74:
 358:Generated_Source\PSoC5/mass_air.c **** 
 359:Generated_Source\PSoC5/mass_air.c **** 
 360:Generated_Source\PSoC5/mass_air.c **** /*******************************************************************************
 361:Generated_Source\PSoC5/mass_air.c **** * Function Name: mass_air_Disable
 362:Generated_Source\PSoC5/mass_air.c **** ********************************************************************************
 363:Generated_Source\PSoC5/mass_air.c **** *
 364:Generated_Source\PSoC5/mass_air.c **** * Summary:
 365:Generated_Source\PSoC5/mass_air.c **** *   Disables the Interrupt in the interrupt controller.
 366:Generated_Source\PSoC5/mass_air.c **** *
 367:Generated_Source\PSoC5/mass_air.c **** * Parameters:
 368:Generated_Source\PSoC5/mass_air.c **** *   None
 369:Generated_Source\PSoC5/mass_air.c **** *
 370:Generated_Source\PSoC5/mass_air.c **** * Return:
 371:Generated_Source\PSoC5/mass_air.c **** *   None
 372:Generated_Source\PSoC5/mass_air.c **** *
 373:Generated_Source\PSoC5/mass_air.c **** *******************************************************************************/
 374:Generated_Source\PSoC5/mass_air.c **** void mass_air_Disable(void)
 375:Generated_Source\PSoC5/mass_air.c **** {
 296              		.loc 1 375 0
 297              		.cfi_startproc
 298              		@ args = 0, pretend = 0, frame = 0
 299              		@ frame_needed = 0, uses_anonymous_args = 0
 300              		@ link register save eliminated.
 376:Generated_Source\PSoC5/mass_air.c ****     /* Disable the general interrupt. */
 377:Generated_Source\PSoC5/mass_air.c ****     *mass_air_INTC_CLR_EN = mass_air__INTC_MASK;
 301              		.loc 1 377 0
 302 0000 0822     		movs	r2, #8
 303 0002 014B     		ldr	r3, .L31
 304 0004 1A60     		str	r2, [r3]
 305 0006 7047     		bx	lr
 306              	.L32:
 307              		.align	2
ARM GAS  C:\Users\Joshua\AppData\Local\Temp\ccg1QVqJ.s 			page 13


 308              	.L31:
 309 0008 80E100E0 		.word	-536813184
 310              		.cfi_endproc
 311              	.LFE74:
 312              		.size	mass_air_Disable, .-mass_air_Disable
 313              		.section	.text.mass_air_Start,"ax",%progbits
 314              		.align	2
 315              		.global	mass_air_Start
 316              		.thumb
 317              		.thumb_func
 318              		.type	mass_air_Start, %function
 319              	mass_air_Start:
 320              	.LFB64:
  67:Generated_Source\PSoC5/mass_air.c ****     /* For all we know the interrupt is active. */
 321              		.loc 1 67 0
 322              		.cfi_startproc
 323              		@ args = 0, pretend = 0, frame = 0
 324              		@ frame_needed = 0, uses_anonymous_args = 0
 325 0000 08B5     		push	{r3, lr}
 326              		.cfi_def_cfa_offset 8
 327              		.cfi_offset 3, -8
 328              		.cfi_offset 14, -4
  69:Generated_Source\PSoC5/mass_air.c **** 
 329              		.loc 1 69 0
 330 0002 FFF7FEFF 		bl	mass_air_Disable
 331              	.LVL20:
  72:Generated_Source\PSoC5/mass_air.c **** 
 332              		.loc 1 72 0
 333 0006 0448     		ldr	r0, .L35
 334 0008 FFF7FEFF 		bl	mass_air_SetVector
 335              	.LVL21:
  75:Generated_Source\PSoC5/mass_air.c **** 
 336              		.loc 1 75 0
 337 000c 0720     		movs	r0, #7
 338 000e FFF7FEFF 		bl	mass_air_SetPriority
 339              	.LVL22:
  78:Generated_Source\PSoC5/mass_air.c **** }
 340              		.loc 1 78 0
 341 0012 FFF7FEFF 		bl	mass_air_Enable
 342              	.LVL23:
 343 0016 08BD     		pop	{r3, pc}
 344              	.L36:
 345              		.align	2
 346              	.L35:
 347 0018 00000000 		.word	mass_air_Interrupt
 348              		.cfi_endproc
 349              	.LFE64:
 350              		.size	mass_air_Start, .-mass_air_Start
 351              		.section	.text.mass_air_StartEx,"ax",%progbits
 352              		.align	2
 353              		.global	mass_air_StartEx
 354              		.thumb
 355              		.thumb_func
 356              		.type	mass_air_StartEx, %function
 357              	mass_air_StartEx:
 358              	.LFB65:
 110:Generated_Source\PSoC5/mass_air.c ****     /* For all we know the interrupt is active. */
ARM GAS  C:\Users\Joshua\AppData\Local\Temp\ccg1QVqJ.s 			page 14


 359              		.loc 1 110 0
 360              		.cfi_startproc
 361              		@ args = 0, pretend = 0, frame = 0
 362              		@ frame_needed = 0, uses_anonymous_args = 0
 363              	.LVL24:
 364 0000 10B5     		push	{r4, lr}
 365              		.cfi_def_cfa_offset 8
 366              		.cfi_offset 4, -8
 367              		.cfi_offset 14, -4
 368 0002 0446     		mov	r4, r0
 112:Generated_Source\PSoC5/mass_air.c **** 
 369              		.loc 1 112 0
 370 0004 FFF7FEFF 		bl	mass_air_Disable
 371              	.LVL25:
 115:Generated_Source\PSoC5/mass_air.c **** 
 372              		.loc 1 115 0
 373 0008 2046     		mov	r0, r4
 374 000a FFF7FEFF 		bl	mass_air_SetVector
 375              	.LVL26:
 118:Generated_Source\PSoC5/mass_air.c **** 
 376              		.loc 1 118 0
 377 000e 0720     		movs	r0, #7
 378 0010 FFF7FEFF 		bl	mass_air_SetPriority
 379              	.LVL27:
 121:Generated_Source\PSoC5/mass_air.c **** }
 380              		.loc 1 121 0
 381 0014 FFF7FEFF 		bl	mass_air_Enable
 382              	.LVL28:
 383 0018 10BD     		pop	{r4, pc}
 384              		.cfi_endproc
 385              	.LFE65:
 386              		.size	mass_air_StartEx, .-mass_air_StartEx
 387 001a 00BF     		.section	.text.mass_air_Stop,"ax",%progbits
 388              		.align	2
 389              		.global	mass_air_Stop
 390              		.thumb
 391              		.thumb_func
 392              		.type	mass_air_Stop, %function
 393              	mass_air_Stop:
 394              	.LFB66:
 140:Generated_Source\PSoC5/mass_air.c ****     /* Disable this interrupt. */
 395              		.loc 1 140 0
 396              		.cfi_startproc
 397              		@ args = 0, pretend = 0, frame = 0
 398              		@ frame_needed = 0, uses_anonymous_args = 0
 399 0000 08B5     		push	{r3, lr}
 400              		.cfi_def_cfa_offset 8
 401              		.cfi_offset 3, -8
 402              		.cfi_offset 14, -4
 142:Generated_Source\PSoC5/mass_air.c **** 
 403              		.loc 1 142 0
 404 0002 FFF7FEFF 		bl	mass_air_Disable
 405              	.LVL29:
 145:Generated_Source\PSoC5/mass_air.c **** }
 406              		.loc 1 145 0
 407 0006 0248     		ldr	r0, .L41
 408 0008 FFF7FEFF 		bl	mass_air_SetVector
ARM GAS  C:\Users\Joshua\AppData\Local\Temp\ccg1QVqJ.s 			page 15


 409              	.LVL30:
 410 000c 08BD     		pop	{r3, pc}
 411              	.L42:
 412 000e 00BF     		.align	2
 413              	.L41:
 414 0010 00000000 		.word	IntDefaultHandler
 415              		.cfi_endproc
 416              	.LFE66:
 417              		.size	mass_air_Stop, .-mass_air_Stop
 418              		.section	.text.mass_air_SetPending,"ax",%progbits
 419              		.align	2
 420              		.global	mass_air_SetPending
 421              		.thumb
 422              		.thumb_func
 423              		.type	mass_air_SetPending, %function
 424              	mass_air_SetPending:
 425              	.LFB75:
 378:Generated_Source\PSoC5/mass_air.c **** }
 379:Generated_Source\PSoC5/mass_air.c **** 
 380:Generated_Source\PSoC5/mass_air.c **** 
 381:Generated_Source\PSoC5/mass_air.c **** /*******************************************************************************
 382:Generated_Source\PSoC5/mass_air.c **** * Function Name: mass_air_SetPending
 383:Generated_Source\PSoC5/mass_air.c **** ********************************************************************************
 384:Generated_Source\PSoC5/mass_air.c **** *
 385:Generated_Source\PSoC5/mass_air.c **** * Summary:
 386:Generated_Source\PSoC5/mass_air.c **** *   Causes the Interrupt to enter the pending state, a software method of
 387:Generated_Source\PSoC5/mass_air.c **** *   generating the interrupt.
 388:Generated_Source\PSoC5/mass_air.c **** *
 389:Generated_Source\PSoC5/mass_air.c **** * Parameters:
 390:Generated_Source\PSoC5/mass_air.c **** *   None
 391:Generated_Source\PSoC5/mass_air.c **** *
 392:Generated_Source\PSoC5/mass_air.c **** * Return:
 393:Generated_Source\PSoC5/mass_air.c **** *   None
 394:Generated_Source\PSoC5/mass_air.c **** *
 395:Generated_Source\PSoC5/mass_air.c **** * Side Effects:
 396:Generated_Source\PSoC5/mass_air.c **** *   If interrupts are enabled and the interrupt is set up properly, the ISR is
 397:Generated_Source\PSoC5/mass_air.c **** *   entered (depending on the priority of this interrupt and other pending 
 398:Generated_Source\PSoC5/mass_air.c **** *   interrupts).
 399:Generated_Source\PSoC5/mass_air.c **** *
 400:Generated_Source\PSoC5/mass_air.c **** *******************************************************************************/
 401:Generated_Source\PSoC5/mass_air.c **** void mass_air_SetPending(void)
 402:Generated_Source\PSoC5/mass_air.c **** {
 426              		.loc 1 402 0
 427              		.cfi_startproc
 428              		@ args = 0, pretend = 0, frame = 0
 429              		@ frame_needed = 0, uses_anonymous_args = 0
 430              		@ link register save eliminated.
 403:Generated_Source\PSoC5/mass_air.c ****     *mass_air_INTC_SET_PD = mass_air__INTC_MASK;
 431              		.loc 1 403 0
 432 0000 0822     		movs	r2, #8
 433 0002 014B     		ldr	r3, .L44
 434 0004 1A60     		str	r2, [r3]
 435 0006 7047     		bx	lr
 436              	.L45:
 437              		.align	2
 438              	.L44:
 439 0008 00E200E0 		.word	-536813056
ARM GAS  C:\Users\Joshua\AppData\Local\Temp\ccg1QVqJ.s 			page 16


 440              		.cfi_endproc
 441              	.LFE75:
 442              		.size	mass_air_SetPending, .-mass_air_SetPending
 443              		.section	.text.mass_air_ClearPending,"ax",%progbits
 444              		.align	2
 445              		.global	mass_air_ClearPending
 446              		.thumb
 447              		.thumb_func
 448              		.type	mass_air_ClearPending, %function
 449              	mass_air_ClearPending:
 450              	.LFB76:
 404:Generated_Source\PSoC5/mass_air.c **** }
 405:Generated_Source\PSoC5/mass_air.c **** 
 406:Generated_Source\PSoC5/mass_air.c **** 
 407:Generated_Source\PSoC5/mass_air.c **** /*******************************************************************************
 408:Generated_Source\PSoC5/mass_air.c **** * Function Name: mass_air_ClearPending
 409:Generated_Source\PSoC5/mass_air.c **** ********************************************************************************
 410:Generated_Source\PSoC5/mass_air.c **** *
 411:Generated_Source\PSoC5/mass_air.c **** * Summary:
 412:Generated_Source\PSoC5/mass_air.c **** *   Clears a pending interrupt in the interrupt controller.
 413:Generated_Source\PSoC5/mass_air.c **** *
 414:Generated_Source\PSoC5/mass_air.c **** *   Note Some interrupt sources are clear-on-read and require the block 
 415:Generated_Source\PSoC5/mass_air.c **** *   interrupt/status register to be read/cleared with the appropriate block API 
 416:Generated_Source\PSoC5/mass_air.c **** *   (GPIO, UART, and so on). Otherwise the ISR will continue to remain in 
 417:Generated_Source\PSoC5/mass_air.c **** *   pending state even though the interrupt itself is cleared using this API.
 418:Generated_Source\PSoC5/mass_air.c **** *
 419:Generated_Source\PSoC5/mass_air.c **** * Parameters:
 420:Generated_Source\PSoC5/mass_air.c **** *   None
 421:Generated_Source\PSoC5/mass_air.c **** *
 422:Generated_Source\PSoC5/mass_air.c **** * Return:
 423:Generated_Source\PSoC5/mass_air.c **** *   None
 424:Generated_Source\PSoC5/mass_air.c **** *
 425:Generated_Source\PSoC5/mass_air.c **** *******************************************************************************/
 426:Generated_Source\PSoC5/mass_air.c **** void mass_air_ClearPending(void)
 427:Generated_Source\PSoC5/mass_air.c **** {
 451              		.loc 1 427 0
 452              		.cfi_startproc
 453              		@ args = 0, pretend = 0, frame = 0
 454              		@ frame_needed = 0, uses_anonymous_args = 0
 455              		@ link register save eliminated.
 428:Generated_Source\PSoC5/mass_air.c ****     *mass_air_INTC_CLR_PD = mass_air__INTC_MASK;
 456              		.loc 1 428 0
 457 0000 0822     		movs	r2, #8
 458 0002 014B     		ldr	r3, .L47
 459 0004 1A60     		str	r2, [r3]
 460 0006 7047     		bx	lr
 461              	.L48:
 462              		.align	2
 463              	.L47:
 464 0008 80E200E0 		.word	-536812928
 465              		.cfi_endproc
 466              	.LFE76:
 467              		.size	mass_air_ClearPending, .-mass_air_ClearPending
 468              		.text
 469              	.Letext0:
 470              		.file 2 "c:\\program files (x86)\\cypress\\psoc creator\\4.1\\psoc creator\\import\\gnu\\arm\\5.4.
 471              		.file 3 "c:\\program files (x86)\\cypress\\psoc creator\\4.1\\psoc creator\\import\\gnu\\arm\\5.4.
ARM GAS  C:\Users\Joshua\AppData\Local\Temp\ccg1QVqJ.s 			page 17


 472              		.file 4 "Generated_Source\\PSoC5/cytypes.h"
 473              		.file 5 "Generated_Source\\PSoC5/core_cm3.h"
 474              		.file 6 "Generated_Source\\PSoC5/MASS_AIRFLOW.h"